
img/multicore:     file format elf64-littleriscv


Disassembly of section .init:

ffffffc000000000 <.init>:
ffffffc000000000:	00003797          	auipc	a5,0x3
ffffffc000000004:	fd87b783          	ld	a5,-40(a5) # 0xffffffc000002fd8
ffffffc000000008:	577d                	li	a4,-1
ffffffc00000000a:	02e78563          	beq	a5,a4,0xffffffc000000034
ffffffc00000000e:	1101                	addi	sp,sp,-32
ffffffc000000010:	ec06                	sd	ra,24(sp)
ffffffc000000012:	e822                	sd	s0,16(sp)
ffffffc000000014:	e426                	sd	s1,8(sp)
ffffffc000000016:	00003417          	auipc	s0,0x3
ffffffc00000001a:	fc240413          	addi	s0,s0,-62 # 0xffffffc000002fd8
ffffffc00000001e:	84ba                	mv	s1,a4
ffffffc000000020:	9782                	jalr	a5
ffffffc000000022:	1461                	addi	s0,s0,-8
ffffffc000000024:	601c                	ld	a5,0(s0)
ffffffc000000026:	fe979de3          	bne	a5,s1,0xffffffc000000020
ffffffc00000002a:	60e2                	ld	ra,24(sp)
ffffffc00000002c:	6442                	ld	s0,16(sp)
ffffffc00000002e:	64a2                	ld	s1,8(sp)
ffffffc000000030:	6105                	addi	sp,sp,32
ffffffc000000032:	8082                	ret
ffffffc000000034:	8082                	ret

Disassembly of section .text:

ffffffc000000100 <.text>:
ffffffc000000100:	1141                	addi	sp,sp,-16
ffffffc000000102:	e02a                	sd	a0,0(sp)
ffffffc000000104:	e42e                	sd	a1,8(sp)
ffffffc000000106:	00000097          	auipc	ra,0x0
ffffffc00000010a:	efa080e7          	jalr	-262(ra) # 0xffffffc000000000
ffffffc00000010e:	6502                	ld	a0,0(sp)
ffffffc000000110:	65a2                	ld	a1,8(sp)
ffffffc000000112:	0141                	addi	sp,sp,16
ffffffc000000114:	00000013          	nop
ffffffc000000118:	00000013          	nop
ffffffc00000011c:	00000013          	nop
ffffffc000000120:	00000013          	nop
ffffffc000000124:	00000013          	nop
ffffffc000000128:	00000013          	nop
ffffffc00000012c:	00000013          	nop
ffffffc000000130:	00000013          	nop
ffffffc000000134:	00000013          	nop
ffffffc000000138:	00000013          	nop
ffffffc00000013c:	00000013          	nop
ffffffc000000140:	00000013          	nop
ffffffc000000144:	00000013          	nop
ffffffc000000148:	00000013          	nop
ffffffc00000014c:	00000013          	nop
ffffffc000000150:	00000013          	nop
ffffffc000000154:	00000013          	nop
ffffffc000000158:	00000013          	nop
ffffffc00000015c:	00000013          	nop
ffffffc000000160:	00000013          	nop
ffffffc000000164:	00000013          	nop
ffffffc000000168:	00000013          	nop
ffffffc00000016c:	00000013          	nop
ffffffc000000170:	00000013          	nop
ffffffc000000174:	00000013          	nop
ffffffc000000178:	00000013          	nop
ffffffc00000017c:	00000013          	nop
ffffffc000000180:	00000013          	nop
ffffffc000000184:	00000013          	nop
ffffffc000000188:	00000013          	nop
ffffffc00000018c:	00000013          	nop
ffffffc000000190:	00000013          	nop
ffffffc000000194:	00000013          	nop
ffffffc000000198:	00000013          	nop
ffffffc00000019c:	00000013          	nop
ffffffc0000001a0:	00000013          	nop
ffffffc0000001a4:	00000013          	nop
ffffffc0000001a8:	00000013          	nop
ffffffc0000001ac:	00000013          	nop
ffffffc0000001b0:	00000013          	nop
ffffffc0000001b4:	00000013          	nop
ffffffc0000001b8:	00000013          	nop
ffffffc0000001bc:	00000013          	nop
ffffffc0000001c0:	00000013          	nop
ffffffc0000001c4:	00000013          	nop
ffffffc0000001c8:	00000013          	nop
ffffffc0000001cc:	00000013          	nop
ffffffc0000001d0:	00000013          	nop
ffffffc0000001d4:	00000013          	nop
ffffffc0000001d8:	00000013          	nop
ffffffc0000001dc:	00000013          	nop
ffffffc0000001e0:	00000013          	nop
ffffffc0000001e4:	00000013          	nop
ffffffc0000001e8:	00000013          	nop
ffffffc0000001ec:	00000013          	nop
ffffffc0000001f0:	00000013          	nop
ffffffc0000001f4:	00000013          	nop
ffffffc0000001f8:	00000013          	nop
ffffffc0000001fc:	00000013          	nop
ffffffc000000200:	00000097          	auipc	ra,0x0
ffffffc000000204:	73e080e7          	jalr	1854(ra) # 0xffffffc00000093e
ffffffc000000208:	00000097          	auipc	ra,0x0
ffffffc00000020c:	31c080e7          	jalr	796(ra) # 0xffffffc000000524
ffffffc000000210:	1161                	addi	sp,sp,-8
ffffffc000000212:	e02a                	sd	a0,0(sp)
ffffffc000000214:	00001097          	auipc	ra,0x1
ffffffc000000218:	200080e7          	jalr	512(ra) # 0xffffffc000001414
ffffffc00000021c:	6502                	ld	a0,0(sp)
ffffffc00000021e:	00000097          	auipc	ra,0x0
ffffffc000000222:	7fa080e7          	jalr	2042(ra) # 0xffffffc000000a18
ffffffc000000226:	0001                	nop
ffffffc000000228:	00000013          	nop
ffffffc00000022c:	00000013          	nop
ffffffc000000230:	00000013          	nop
ffffffc000000234:	00000013          	nop
ffffffc000000238:	00000013          	nop
ffffffc00000023c:	00000013          	nop
ffffffc000000240:	00000013          	nop
ffffffc000000244:	00000013          	nop
ffffffc000000248:	00000013          	nop
ffffffc00000024c:	00000013          	nop
ffffffc000000250:	00000013          	nop
ffffffc000000254:	00000013          	nop
ffffffc000000258:	00000013          	nop
ffffffc00000025c:	00000013          	nop
ffffffc000000260:	00000013          	nop
ffffffc000000264:	00000013          	nop
ffffffc000000268:	00000013          	nop
ffffffc00000026c:	00000013          	nop
ffffffc000000270:	00000013          	nop
ffffffc000000274:	00000013          	nop
ffffffc000000278:	00000013          	nop
ffffffc00000027c:	00000013          	nop
ffffffc000000280:	00000013          	nop
ffffffc000000284:	00000013          	nop
ffffffc000000288:	00000013          	nop
ffffffc00000028c:	00000013          	nop
ffffffc000000290:	00000013          	nop
ffffffc000000294:	00000013          	nop
ffffffc000000298:	00000013          	nop
ffffffc00000029c:	00000013          	nop
ffffffc0000002a0:	00000013          	nop
ffffffc0000002a4:	00000013          	nop
ffffffc0000002a8:	00000013          	nop
ffffffc0000002ac:	00000013          	nop
ffffffc0000002b0:	00000013          	nop
ffffffc0000002b4:	00000013          	nop
ffffffc0000002b8:	00000013          	nop
ffffffc0000002bc:	00000013          	nop
ffffffc0000002c0:	00000013          	nop
ffffffc0000002c4:	00000013          	nop
ffffffc0000002c8:	00000013          	nop
ffffffc0000002cc:	00000013          	nop
ffffffc0000002d0:	00000013          	nop
ffffffc0000002d4:	00000013          	nop
ffffffc0000002d8:	00000013          	nop
ffffffc0000002dc:	00000013          	nop
ffffffc0000002e0:	00000013          	nop
ffffffc0000002e4:	00000013          	nop
ffffffc0000002e8:	00000013          	nop
ffffffc0000002ec:	00000013          	nop
ffffffc0000002f0:	7175                	addi	sp,sp,-144
ffffffc0000002f2:	e506                	sd	ra,136(sp)
ffffffc0000002f4:	e122                	sd	s0,128(sp)
ffffffc0000002f6:	fca6                	sd	s1,120(sp)
ffffffc0000002f8:	f8ca                	sd	s2,112(sp)
ffffffc0000002fa:	f4ce                	sd	s3,104(sp)
ffffffc0000002fc:	f0d2                	sd	s4,96(sp)
ffffffc0000002fe:	ecd6                	sd	s5,88(sp)
ffffffc000000300:	e8da                	sd	s6,80(sp)
ffffffc000000302:	e4de                	sd	s7,72(sp)
ffffffc000000304:	e0e2                	sd	s8,64(sp)
ffffffc000000306:	8a2a                	mv	s4,a0
ffffffc000000308:	06400913          	li	s2,100
ffffffc00000030c:	00400997          	auipc	s3,0x400
ffffffc000000310:	d0498993          	addi	s3,s3,-764 # 0xffffffc000400010
ffffffc000000314:	4c41                	li	s8,16
ffffffc000000316:	05b00b93          	li	s7,91
ffffffc00000031a:	840a                	mv	s0,sp
ffffffc00000031c:	00400497          	auipc	s1,0x400
ffffffc000000320:	cec48493          	addi	s1,s1,-788 # 0xffffffc000400008
ffffffc000000324:	00001b17          	auipc	s6,0x1
ffffffc000000328:	134b0b13          	addi	s6,s6,308 # 0xffffffc000001458
ffffffc00000032c:	00001a97          	auipc	s5,0x1
ffffffc000000330:	134a8a93          	addi	s5,s5,308 # 0xffffffc000001460
ffffffc000000334:	0009b503          	ld	a0,0(s3)
ffffffc000000338:	8792                	mv	a5,tp
ffffffc00000033a:	1782                	slli	a5,a5,0x20
ffffffc00000033c:	9381                	srli	a5,a5,0x20
ffffffc00000033e:	078e                	slli	a5,a5,0x3
ffffffc000000340:	07c1                	addi	a5,a5,16
ffffffc000000342:	97aa                	add	a5,a5,a0
ffffffc000000344:	0187b023          	sd	s8,0(a5)
ffffffc000000348:	00000097          	auipc	ra,0x0
ffffffc00000034c:	618080e7          	jalr	1560(ra) # 0xffffffc000000960
ffffffc000000350:	8792                	mv	a5,tp
ffffffc000000352:	01710023          	sb	s7,0(sp)
ffffffc000000356:	000100a3          	sb	zero,1(sp)
ffffffc00000035a:	8522                	mv	a0,s0
ffffffc00000035c:	00000097          	auipc	ra,0x0
ffffffc000000360:	616080e7          	jalr	1558(ra) # 0xffffffc000000972
ffffffc000000364:	8592                	mv	a1,tp
ffffffc000000366:	4681                	li	a3,0
ffffffc000000368:	8622                	mv	a2,s0
ffffffc00000036a:	2581                	sext.w	a1,a1
ffffffc00000036c:	8526                	mv	a0,s1
ffffffc00000036e:	00001097          	auipc	ra,0x1
ffffffc000000372:	ed4080e7          	jalr	-300(ra) # 0xffffffc000001242
ffffffc000000376:	04050793          	addi	a5,a0,64
ffffffc00000037a:	00278533          	add	a0,a5,sp
ffffffc00000037e:	fc050023          	sb	zero,-64(a0)
ffffffc000000382:	8522                	mv	a0,s0
ffffffc000000384:	00000097          	auipc	ra,0x0
ffffffc000000388:	5ee080e7          	jalr	1518(ra) # 0xffffffc000000972
ffffffc00000038c:	855a                	mv	a0,s6
ffffffc00000038e:	00000097          	auipc	ra,0x0
ffffffc000000392:	5e4080e7          	jalr	1508(ra) # 0xffffffc000000972
ffffffc000000396:	8622                	mv	a2,s0
ffffffc000000398:	85d2                	mv	a1,s4
ffffffc00000039a:	8526                	mv	a0,s1
ffffffc00000039c:	00001097          	auipc	ra,0x1
ffffffc0000003a0:	f5c080e7          	jalr	-164(ra) # 0xffffffc0000012f8
ffffffc0000003a4:	04050793          	addi	a5,a0,64
ffffffc0000003a8:	00278533          	add	a0,a5,sp
ffffffc0000003ac:	fc050023          	sb	zero,-64(a0)
ffffffc0000003b0:	8522                	mv	a0,s0
ffffffc0000003b2:	00000097          	auipc	ra,0x0
ffffffc0000003b6:	5c0080e7          	jalr	1472(ra) # 0xffffffc000000972
ffffffc0000003ba:	0044c503          	lbu	a0,4(s1)
ffffffc0000003be:	00000097          	auipc	ra,0x0
ffffffc0000003c2:	672080e7          	jalr	1650(ra) # 0xffffffc000000a30
ffffffc0000003c6:	8556                	mv	a0,s5
ffffffc0000003c8:	00000097          	auipc	ra,0x0
ffffffc0000003cc:	5aa080e7          	jalr	1450(ra) # 0xffffffc000000972
ffffffc0000003d0:	47a9                	li	a5,10
ffffffc0000003d2:	c09c                	sw	a5,0(s1)
ffffffc0000003d4:	0009b503          	ld	a0,0(s3)
ffffffc0000003d8:	8792                	mv	a5,tp
ffffffc0000003da:	1782                	slli	a5,a5,0x20
ffffffc0000003dc:	9381                	srli	a5,a5,0x20
ffffffc0000003de:	078e                	slli	a5,a5,0x3
ffffffc0000003e0:	07c1                	addi	a5,a5,16
ffffffc0000003e2:	97aa                	add	a5,a5,a0
ffffffc0000003e4:	4745                	li	a4,17
ffffffc0000003e6:	e398                	sd	a4,0(a5)
ffffffc0000003e8:	00000097          	auipc	ra,0x0
ffffffc0000003ec:	578080e7          	jalr	1400(ra) # 0xffffffc000000960
ffffffc0000003f0:	8792                	mv	a5,tp
ffffffc0000003f2:	397d                	addiw	s2,s2,-1
ffffffc0000003f4:	f40910e3          	bnez	s2,0xffffffc000000334
ffffffc0000003f8:	8552                	mv	a0,s4
ffffffc0000003fa:	60aa                	ld	ra,136(sp)
ffffffc0000003fc:	640a                	ld	s0,128(sp)
ffffffc0000003fe:	74e6                	ld	s1,120(sp)
ffffffc000000400:	7946                	ld	s2,112(sp)
ffffffc000000402:	79a6                	ld	s3,104(sp)
ffffffc000000404:	7a06                	ld	s4,96(sp)
ffffffc000000406:	6ae6                	ld	s5,88(sp)
ffffffc000000408:	6b46                	ld	s6,80(sp)
ffffffc00000040a:	6ba6                	ld	s7,72(sp)
ffffffc00000040c:	6c06                	ld	s8,64(sp)
ffffffc00000040e:	6149                	addi	sp,sp,144
ffffffc000000410:	8082                	ret
ffffffc000000412:	711d                	addi	sp,sp,-96
ffffffc000000414:	ec86                	sd	ra,88(sp)
ffffffc000000416:	e8a2                	sd	s0,80(sp)
ffffffc000000418:	e4a6                	sd	s1,72(sp)
ffffffc00000041a:	84aa                	mv	s1,a0
ffffffc00000041c:	4681                	li	a3,0
ffffffc00000041e:	860a                	mv	a2,sp
ffffffc000000420:	00001097          	auipc	ra,0x1
ffffffc000000424:	e22080e7          	jalr	-478(ra) # 0xffffffc000001242
ffffffc000000428:	04050793          	addi	a5,a0,64
ffffffc00000042c:	00278533          	add	a0,a5,sp
ffffffc000000430:	fc050023          	sb	zero,-64(a0)
ffffffc000000434:	850a                	mv	a0,sp
ffffffc000000436:	00000097          	auipc	ra,0x0
ffffffc00000043a:	53c080e7          	jalr	1340(ra) # 0xffffffc000000972
ffffffc00000043e:	8526                	mv	a0,s1
ffffffc000000440:	60e6                	ld	ra,88(sp)
ffffffc000000442:	6446                	ld	s0,80(sp)
ffffffc000000444:	64a6                	ld	s1,72(sp)
ffffffc000000446:	6125                	addi	sp,sp,96
ffffffc000000448:	8082                	ret
ffffffc00000044a:	1141                	addi	sp,sp,-16
ffffffc00000044c:	e406                	sd	ra,8(sp)
ffffffc00000044e:	e022                	sd	s0,0(sp)
ffffffc000000450:	842a                	mv	s0,a0
ffffffc000000452:	02050693          	addi	a3,a0,32
ffffffc000000456:	4705                	li	a4,1
ffffffc000000458:	08e6a7af          	amoswap.w	a5,a4,(a3)
ffffffc00000045c:	0ff7f793          	zext.b	a5,a5
ffffffc000000460:	ffe5                	bnez	a5,0xffffffc000000458
ffffffc000000462:	c9d1                	beqz	a1,0xffffffc0000004f6
ffffffc000000464:	0075f793          	andi	a5,a1,7
ffffffc000000468:	c789                	beqz	a5,0xffffffc000000472
ffffffc00000046a:	0585                	addi	a1,a1,1
ffffffc00000046c:	0075f793          	andi	a5,a1,7
ffffffc000000470:	ffed                	bnez	a5,0xffffffc00000046a
ffffffc000000472:	05c1                	addi	a1,a1,16
ffffffc000000474:	02000793          	li	a5,32
ffffffc000000478:	00f5f363          	bgeu	a1,a5,0xffffffc00000047e
ffffffc00000047c:	85be                	mv	a1,a5
ffffffc00000047e:	641c                	ld	a5,8(s0)
ffffffc000000480:	cb91                	beqz	a5,0xffffffc000000494
ffffffc000000482:	02058693          	addi	a3,a1,32
ffffffc000000486:	6798                	ld	a4,8(a5)
ffffffc000000488:	06d77963          	bgeu	a4,a3,0xffffffc0000004fa
ffffffc00000048c:	06e58763          	beq	a1,a4,0xffffffc0000004fa
ffffffc000000490:	6f9c                	ld	a5,24(a5)
ffffffc000000492:	fbf5                	bnez	a5,0xffffffc000000486
ffffffc000000494:	8522                	mv	a0,s0
ffffffc000000496:	00001097          	auipc	ra,0x1
ffffffc00000049a:	cda080e7          	jalr	-806(ra) # 0xffffffc000001170
ffffffc00000049e:	4501                	li	a0,0
ffffffc0000004a0:	a8a5                	j	0xffffffc000000518
ffffffc0000004a2:	6018                	ld	a4,0(s0)
ffffffc0000004a4:	4685                	li	a3,1
ffffffc0000004a6:	00d70d63          	beq	a4,a3,0xffffffc0000004c0
ffffffc0000004aa:	6b90                	ld	a2,16(a5)
ffffffc0000004ac:	c20d                	beqz	a2,0xffffffc0000004ce
ffffffc0000004ae:	6f94                	ld	a3,24(a5)
ffffffc0000004b0:	ca8d                	beqz	a3,0xffffffc0000004e2
ffffffc0000004b2:	ee14                	sd	a3,24(a2)
ffffffc0000004b4:	6b98                	ld	a4,16(a5)
ffffffc0000004b6:	ea98                	sd	a4,16(a3)
ffffffc0000004b8:	6018                	ld	a4,0(s0)
ffffffc0000004ba:	177d                	addi	a4,a4,-1
ffffffc0000004bc:	e018                	sd	a4,0(s0)
ffffffc0000004be:	a0b1                	j	0xffffffc00000050a
ffffffc0000004c0:	00043423          	sd	zero,8(s0)
ffffffc0000004c4:	00043823          	sd	zero,16(s0)
ffffffc0000004c8:	00043023          	sd	zero,0(s0)
ffffffc0000004cc:	a83d                	j	0xffffffc00000050a
ffffffc0000004ce:	cf15                	beqz	a4,0xffffffc00000050a
ffffffc0000004d0:	6418                	ld	a4,8(s0)
ffffffc0000004d2:	6f18                	ld	a4,24(a4)
ffffffc0000004d4:	e418                	sd	a4,8(s0)
ffffffc0000004d6:	00073823          	sd	zero,16(a4)
ffffffc0000004da:	6018                	ld	a4,0(s0)
ffffffc0000004dc:	177d                	addi	a4,a4,-1
ffffffc0000004de:	e018                	sd	a4,0(s0)
ffffffc0000004e0:	a02d                	j	0xffffffc00000050a
ffffffc0000004e2:	c705                	beqz	a4,0xffffffc00000050a
ffffffc0000004e4:	6818                	ld	a4,16(s0)
ffffffc0000004e6:	6b18                	ld	a4,16(a4)
ffffffc0000004e8:	e818                	sd	a4,16(s0)
ffffffc0000004ea:	00073c23          	sd	zero,24(a4)
ffffffc0000004ee:	6018                	ld	a4,0(s0)
ffffffc0000004f0:	177d                	addi	a4,a4,-1
ffffffc0000004f2:	e018                	sd	a4,0(s0)
ffffffc0000004f4:	a819                	j	0xffffffc00000050a
ffffffc0000004f6:	4501                	li	a0,0
ffffffc0000004f8:	a005                	j	0xffffffc000000518
ffffffc0000004fa:	6798                	ld	a4,8(a5)
ffffffc0000004fc:	8f0d                	sub	a4,a4,a1
ffffffc0000004fe:	e798                	sd	a4,8(a5)
ffffffc000000500:	6c18                	ld	a4,24(s0)
ffffffc000000502:	8f0d                	sub	a4,a4,a1
ffffffc000000504:	ec18                	sd	a4,24(s0)
ffffffc000000506:	6798                	ld	a4,8(a5)
ffffffc000000508:	df49                	beqz	a4,0xffffffc0000004a2
ffffffc00000050a:	6398                	ld	a4,0(a5)
ffffffc00000050c:	679c                	ld	a5,8(a5)
ffffffc00000050e:	97ba                	add	a5,a5,a4
ffffffc000000510:	e380                	sd	s0,0(a5)
ffffffc000000512:	01078513          	addi	a0,a5,16
ffffffc000000516:	e78c                	sd	a1,8(a5)
ffffffc000000518:	02040023          	sb	zero,32(s0)
ffffffc00000051c:	60a2                	ld	ra,8(sp)
ffffffc00000051e:	6402                	ld	s0,0(sp)
ffffffc000000520:	0141                	addi	sp,sp,16
ffffffc000000522:	8082                	ret
ffffffc000000524:	7171                	addi	sp,sp,-176
ffffffc000000526:	f506                	sd	ra,168(sp)
ffffffc000000528:	f122                	sd	s0,160(sp)
ffffffc00000052a:	ed26                	sd	s1,152(sp)
ffffffc00000052c:	e94a                	sd	s2,144(sp)
ffffffc00000052e:	e54e                	sd	s3,136(sp)
ffffffc000000530:	e152                	sd	s4,128(sp)
ffffffc000000532:	fcd6                	sd	s5,120(sp)
ffffffc000000534:	f8da                	sd	s6,112(sp)
ffffffc000000536:	f4de                	sd	s7,104(sp)
ffffffc000000538:	f0e2                	sd	s8,96(sp)
ffffffc00000053a:	ece6                	sd	s9,88(sp)
ffffffc00000053c:	e8ea                	sd	s10,80(sp)
ffffffc00000053e:	05b00793          	li	a5,91
ffffffc000000542:	00f10423          	sb	a5,8(sp)
ffffffc000000546:	000104a3          	sb	zero,9(sp)
ffffffc00000054a:	0028                	addi	a0,sp,8
ffffffc00000054c:	00000097          	auipc	ra,0x0
ffffffc000000550:	426080e7          	jalr	1062(ra) # 0xffffffc000000972
ffffffc000000554:	8592                	mv	a1,tp
ffffffc000000556:	2581                	sext.w	a1,a1
ffffffc000000558:	00400517          	auipc	a0,0x400
ffffffc00000055c:	ab050513          	addi	a0,a0,-1360 # 0xffffffc000400008
ffffffc000000560:	00000097          	auipc	ra,0x0
ffffffc000000564:	eb2080e7          	jalr	-334(ra) # 0xffffffc000000412
ffffffc000000568:	842a                	mv	s0,a0
ffffffc00000056a:	00001517          	auipc	a0,0x1
ffffffc00000056e:	efe50513          	addi	a0,a0,-258 # 0xffffffc000001468
ffffffc000000572:	00000097          	auipc	ra,0x0
ffffffc000000576:	400080e7          	jalr	1024(ra) # 0xffffffc000000972
ffffffc00000057a:	00444503          	lbu	a0,4(s0)
ffffffc00000057e:	00000097          	auipc	ra,0x0
ffffffc000000582:	4b2080e7          	jalr	1202(ra) # 0xffffffc000000a30
ffffffc000000586:	00001517          	auipc	a0,0x1
ffffffc00000058a:	eda50513          	addi	a0,a0,-294 # 0xffffffc000001460
ffffffc00000058e:	00000097          	auipc	ra,0x0
ffffffc000000592:	3e4080e7          	jalr	996(ra) # 0xffffffc000000972
ffffffc000000596:	47a9                	li	a5,10
ffffffc000000598:	c01c                	sw	a5,0(s0)
ffffffc00000059a:	c402                	sw	zero,8(sp)
ffffffc00000059c:	00400a17          	auipc	s4,0x400
ffffffc0000005a0:	a8ca0a13          	addi	s4,s4,-1396 # 0xffffffc000400028
ffffffc0000005a4:	4c21                	li	s8,8
ffffffc0000005a6:	00000b97          	auipc	s7,0x0
ffffffc0000005aa:	d4ab8b93          	addi	s7,s7,-694 # 0xffffffc0000002f0
ffffffc0000005ae:	15000b13          	li	s6,336
ffffffc0000005b2:	4a89                	li	s5,2
ffffffc0000005b4:	00a4                	addi	s1,sp,72
ffffffc0000005b6:	018109b3          	add	s3,sp,s8
ffffffc0000005ba:	85e2                	mv	a1,s8
ffffffc0000005bc:	000a3503          	ld	a0,0(s4)
ffffffc0000005c0:	00000097          	auipc	ra,0x0
ffffffc0000005c4:	e8a080e7          	jalr	-374(ra) # 0xffffffc00000044a
ffffffc0000005c8:	892a                	mv	s2,a0
ffffffc0000005ca:	e4de                	sd	s7,72(sp)
ffffffc0000005cc:	85da                	mv	a1,s6
ffffffc0000005ce:	000a3503          	ld	a0,0(s4)
ffffffc0000005d2:	00000097          	auipc	ra,0x0
ffffffc0000005d6:	e78080e7          	jalr	-392(ra) # 0xffffffc00000044a
ffffffc0000005da:	842a                	mv	s0,a0
ffffffc0000005dc:	00053023          	sd	zero,0(a0)
ffffffc0000005e0:	00053423          	sd	zero,8(a0)
ffffffc0000005e4:	14a53023          	sd	a0,320(a0)
ffffffc0000005e8:	14053423          	sd	zero,328(a0)
ffffffc0000005ec:	8792                	mv	a5,tp
ffffffc0000005ee:	1782                	slli	a5,a5,0x20
ffffffc0000005f0:	9381                	srli	a5,a5,0x20
ffffffc0000005f2:	078e                	slli	a5,a5,0x3
ffffffc0000005f4:	07c1                	addi	a5,a5,16
ffffffc0000005f6:	97aa                	add	a5,a5,a0
ffffffc0000005f8:	0157b023          	sd	s5,0(a5)
ffffffc0000005fc:	0004c303          	lbu	t1,0(s1)
ffffffc000000600:	0014c883          	lbu	a7,1(s1)
ffffffc000000604:	0024c803          	lbu	a6,2(s1)
ffffffc000000608:	0034c583          	lbu	a1,3(s1)
ffffffc00000060c:	0044c603          	lbu	a2,4(s1)
ffffffc000000610:	0054c683          	lbu	a3,5(s1)
ffffffc000000614:	0064c703          	lbu	a4,6(s1)
ffffffc000000618:	02650823          	sb	t1,48(a0)
ffffffc00000061c:	031508a3          	sb	a7,49(a0)
ffffffc000000620:	03050923          	sb	a6,50(a0)
ffffffc000000624:	02b509a3          	sb	a1,51(a0)
ffffffc000000628:	02c50a23          	sb	a2,52(a0)
ffffffc00000062c:	02d50aa3          	sb	a3,53(a0)
ffffffc000000630:	02e50b23          	sb	a4,54(a0)
ffffffc000000634:	0074c703          	lbu	a4,7(s1)
ffffffc000000638:	02e50ba3          	sb	a4,55(a0)
ffffffc00000063c:	0009c603          	lbu	a2,0(s3)
ffffffc000000640:	0019c683          	lbu	a3,1(s3)
ffffffc000000644:	0029c703          	lbu	a4,2(s3)
ffffffc000000648:	02c50c23          	sb	a2,56(a0)
ffffffc00000064c:	02d50ca3          	sb	a3,57(a0)
ffffffc000000650:	02e50d23          	sb	a4,58(a0)
ffffffc000000654:	0039c703          	lbu	a4,3(s3)
ffffffc000000658:	02e50da3          	sb	a4,59(a0)
ffffffc00000065c:	00000097          	auipc	ra,0x0
ffffffc000000660:	304080e7          	jalr	772(ra) # 0xffffffc000000960
ffffffc000000664:	8792                	mv	a5,tp
ffffffc000000666:	00893023          	sd	s0,0(s2)
ffffffc00000066a:	47a2                	lw	a5,8(sp)
ffffffc00000066c:	00379693          	slli	a3,a5,0x3
ffffffc000000670:	00400717          	auipc	a4,0x400
ffffffc000000674:	9c870713          	addi	a4,a4,-1592 # 0xffffffc000400038
ffffffc000000678:	9736                	add	a4,a4,a3
ffffffc00000067a:	01273023          	sd	s2,0(a4)
ffffffc00000067e:	2785                	addiw	a5,a5,1
ffffffc000000680:	c43e                	sw	a5,8(sp)
ffffffc000000682:	470d                	li	a4,3
ffffffc000000684:	f2f75be3          	bge	a4,a5,0xffffffc0000005ba
ffffffc000000688:	00400497          	auipc	s1,0x400
ffffffc00000068c:	9b048493          	addi	s1,s1,-1616 # 0xffffffc000400038
ffffffc000000690:	00400a17          	auipc	s4,0x400
ffffffc000000694:	9c8a0a13          	addi	s4,s4,-1592 # 0xffffffc000400058
ffffffc000000698:	89a6                	mv	s3,s1
ffffffc00000069a:	4cb5                	li	s9,13
ffffffc00000069c:	00400a97          	auipc	s5,0x400
ffffffc0000006a0:	974a8a93          	addi	s5,s5,-1676 # 0xffffffc000400010
ffffffc0000006a4:	4c41                	li	s8,16
ffffffc0000006a6:	05b00b93          	li	s7,91
ffffffc0000006aa:	0020                	addi	s0,sp,8
ffffffc0000006ac:	00400917          	auipc	s2,0x400
ffffffc0000006b0:	95c90913          	addi	s2,s2,-1700 # 0xffffffc000400008
ffffffc0000006b4:	00001b17          	auipc	s6,0x1
ffffffc0000006b8:	dc4b0b13          	addi	s6,s6,-572 # 0xffffffc000001478
ffffffc0000006bc:	0009b783          	ld	a5,0(s3)
ffffffc0000006c0:	0007bd03          	ld	s10,0(a5)
ffffffc0000006c4:	8792                	mv	a5,tp
ffffffc0000006c6:	1782                	slli	a5,a5,0x20
ffffffc0000006c8:	9381                	srli	a5,a5,0x20
ffffffc0000006ca:	078e                	slli	a5,a5,0x3
ffffffc0000006cc:	07c1                	addi	a5,a5,16
ffffffc0000006ce:	97ea                	add	a5,a5,s10
ffffffc0000006d0:	0197b023          	sd	s9,0(a5)
ffffffc0000006d4:	856a                	mv	a0,s10
ffffffc0000006d6:	00000097          	auipc	ra,0x0
ffffffc0000006da:	28a080e7          	jalr	650(ra) # 0xffffffc000000960
ffffffc0000006de:	8792                	mv	a5,tp
ffffffc0000006e0:	1782                	slli	a5,a5,0x20
ffffffc0000006e2:	9381                	srli	a5,a5,0x20
ffffffc0000006e4:	078e                	slli	a5,a5,0x3
ffffffc0000006e6:	07c1                	addi	a5,a5,16
ffffffc0000006e8:	9d3e                	add	s10,s10,a5
ffffffc0000006ea:	000d2d03          	lw	s10,0(s10)
ffffffc0000006ee:	000ab503          	ld	a0,0(s5)
ffffffc0000006f2:	8792                	mv	a5,tp
ffffffc0000006f4:	1782                	slli	a5,a5,0x20
ffffffc0000006f6:	9381                	srli	a5,a5,0x20
ffffffc0000006f8:	078e                	slli	a5,a5,0x3
ffffffc0000006fa:	07c1                	addi	a5,a5,16
ffffffc0000006fc:	97aa                	add	a5,a5,a0
ffffffc0000006fe:	0187b023          	sd	s8,0(a5)
ffffffc000000702:	00000097          	auipc	ra,0x0
ffffffc000000706:	25e080e7          	jalr	606(ra) # 0xffffffc000000960
ffffffc00000070a:	8792                	mv	a5,tp
ffffffc00000070c:	01710423          	sb	s7,8(sp)
ffffffc000000710:	000104a3          	sb	zero,9(sp)
ffffffc000000714:	8522                	mv	a0,s0
ffffffc000000716:	00000097          	auipc	ra,0x0
ffffffc00000071a:	25c080e7          	jalr	604(ra) # 0xffffffc000000972
ffffffc00000071e:	8592                	mv	a1,tp
ffffffc000000720:	4681                	li	a3,0
ffffffc000000722:	8622                	mv	a2,s0
ffffffc000000724:	2581                	sext.w	a1,a1
ffffffc000000726:	854a                	mv	a0,s2
ffffffc000000728:	00001097          	auipc	ra,0x1
ffffffc00000072c:	b1a080e7          	jalr	-1254(ra) # 0xffffffc000001242
ffffffc000000730:	05050793          	addi	a5,a0,80
ffffffc000000734:	00278533          	add	a0,a5,sp
ffffffc000000738:	fa050c23          	sb	zero,-72(a0)
ffffffc00000073c:	8522                	mv	a0,s0
ffffffc00000073e:	00000097          	auipc	ra,0x0
ffffffc000000742:	234080e7          	jalr	564(ra) # 0xffffffc000000972
ffffffc000000746:	855a                	mv	a0,s6
ffffffc000000748:	00000097          	auipc	ra,0x0
ffffffc00000074c:	22a080e7          	jalr	554(ra) # 0xffffffc000000972
ffffffc000000750:	8622                	mv	a2,s0
ffffffc000000752:	85ea                	mv	a1,s10
ffffffc000000754:	854a                	mv	a0,s2
ffffffc000000756:	00001097          	auipc	ra,0x1
ffffffc00000075a:	ba2080e7          	jalr	-1118(ra) # 0xffffffc0000012f8
ffffffc00000075e:	05050793          	addi	a5,a0,80
ffffffc000000762:	00278533          	add	a0,a5,sp
ffffffc000000766:	fa050c23          	sb	zero,-72(a0)
ffffffc00000076a:	8522                	mv	a0,s0
ffffffc00000076c:	00000097          	auipc	ra,0x0
ffffffc000000770:	206080e7          	jalr	518(ra) # 0xffffffc000000972
ffffffc000000774:	00001517          	auipc	a0,0x1
ffffffc000000778:	d1450513          	addi	a0,a0,-748 # 0xffffffc000001488
ffffffc00000077c:	00000097          	auipc	ra,0x0
ffffffc000000780:	1f6080e7          	jalr	502(ra) # 0xffffffc000000972
ffffffc000000784:	00494503          	lbu	a0,4(s2)
ffffffc000000788:	00000097          	auipc	ra,0x0
ffffffc00000078c:	2a8080e7          	jalr	680(ra) # 0xffffffc000000a30
ffffffc000000790:	00001517          	auipc	a0,0x1
ffffffc000000794:	cd050513          	addi	a0,a0,-816 # 0xffffffc000001460
ffffffc000000798:	00000097          	auipc	ra,0x0
ffffffc00000079c:	1da080e7          	jalr	474(ra) # 0xffffffc000000972
ffffffc0000007a0:	47a9                	li	a5,10
ffffffc0000007a2:	00f92023          	sw	a5,0(s2)
ffffffc0000007a6:	000ab503          	ld	a0,0(s5)
ffffffc0000007aa:	8792                	mv	a5,tp
ffffffc0000007ac:	1782                	slli	a5,a5,0x20
ffffffc0000007ae:	9381                	srli	a5,a5,0x20
ffffffc0000007b0:	078e                	slli	a5,a5,0x3
ffffffc0000007b2:	07c1                	addi	a5,a5,16
ffffffc0000007b4:	97aa                	add	a5,a5,a0
ffffffc0000007b6:	4745                	li	a4,17
ffffffc0000007b8:	e398                	sd	a4,0(a5)
ffffffc0000007ba:	00000097          	auipc	ra,0x0
ffffffc0000007be:	1a6080e7          	jalr	422(ra) # 0xffffffc000000960
ffffffc0000007c2:	8792                	mv	a5,tp
ffffffc0000007c4:	09a1                	addi	s3,s3,8
ffffffc0000007c6:	ef3a1be3          	bne	s4,s3,0xffffffc0000006bc
ffffffc0000007ca:	49a1                	li	s3,8
ffffffc0000007cc:	4b29                	li	s6,10
ffffffc0000007ce:	15000a93          	li	s5,336
ffffffc0000007d2:	a811                	j	0xffffffc0000007e6
ffffffc0000007d4:	85ce                	mv	a1,s3
ffffffc0000007d6:	8522                	mv	a0,s0
ffffffc0000007d8:	00001097          	auipc	ra,0x1
ffffffc0000007dc:	986080e7          	jalr	-1658(ra) # 0xffffffc00000115e
ffffffc0000007e0:	04a1                	addi	s1,s1,8
ffffffc0000007e2:	03448d63          	beq	s1,s4,0xffffffc00000081c
ffffffc0000007e6:	6080                	ld	s0,0(s1)
ffffffc0000007e8:	dc65                	beqz	s0,0xffffffc0000007e0
ffffffc0000007ea:	00043903          	ld	s2,0(s0)
ffffffc0000007ee:	fe0903e3          	beqz	s2,0xffffffc0000007d4
ffffffc0000007f2:	8792                	mv	a5,tp
ffffffc0000007f4:	1782                	slli	a5,a5,0x20
ffffffc0000007f6:	9381                	srli	a5,a5,0x20
ffffffc0000007f8:	078e                	slli	a5,a5,0x3
ffffffc0000007fa:	07c1                	addi	a5,a5,16
ffffffc0000007fc:	97ca                	add	a5,a5,s2
ffffffc0000007fe:	0167b023          	sd	s6,0(a5)
ffffffc000000802:	854a                	mv	a0,s2
ffffffc000000804:	00000097          	auipc	ra,0x0
ffffffc000000808:	15c080e7          	jalr	348(ra) # 0xffffffc000000960
ffffffc00000080c:	8792                	mv	a5,tp
ffffffc00000080e:	85d6                	mv	a1,s5
ffffffc000000810:	854a                	mv	a0,s2
ffffffc000000812:	00001097          	auipc	ra,0x1
ffffffc000000816:	94c080e7          	jalr	-1716(ra) # 0xffffffc00000115e
ffffffc00000081a:	bf6d                	j	0xffffffc0000007d4
ffffffc00000081c:	05b00793          	li	a5,91
ffffffc000000820:	00f10423          	sb	a5,8(sp)
ffffffc000000824:	000104a3          	sb	zero,9(sp)
ffffffc000000828:	0028                	addi	a0,sp,8
ffffffc00000082a:	00000097          	auipc	ra,0x0
ffffffc00000082e:	148080e7          	jalr	328(ra) # 0xffffffc000000972
ffffffc000000832:	8592                	mv	a1,tp
ffffffc000000834:	2581                	sext.w	a1,a1
ffffffc000000836:	003ff517          	auipc	a0,0x3ff
ffffffc00000083a:	7d250513          	addi	a0,a0,2002 # 0xffffffc000400008
ffffffc00000083e:	00000097          	auipc	ra,0x0
ffffffc000000842:	bd4080e7          	jalr	-1068(ra) # 0xffffffc000000412
ffffffc000000846:	842a                	mv	s0,a0
ffffffc000000848:	00001517          	auipc	a0,0x1
ffffffc00000084c:	c5050513          	addi	a0,a0,-944 # 0xffffffc000001498
ffffffc000000850:	00000097          	auipc	ra,0x0
ffffffc000000854:	122080e7          	jalr	290(ra) # 0xffffffc000000972
ffffffc000000858:	00444503          	lbu	a0,4(s0)
ffffffc00000085c:	00000097          	auipc	ra,0x0
ffffffc000000860:	1d4080e7          	jalr	468(ra) # 0xffffffc000000a30
ffffffc000000864:	00001517          	auipc	a0,0x1
ffffffc000000868:	bfc50513          	addi	a0,a0,-1028 # 0xffffffc000001460
ffffffc00000086c:	00000097          	auipc	ra,0x0
ffffffc000000870:	106080e7          	jalr	262(ra) # 0xffffffc000000972
ffffffc000000874:	47a9                	li	a5,10
ffffffc000000876:	c01c                	sw	a5,0(s0)
ffffffc000000878:	4501                	li	a0,0
ffffffc00000087a:	70aa                	ld	ra,168(sp)
ffffffc00000087c:	740a                	ld	s0,160(sp)
ffffffc00000087e:	64ea                	ld	s1,152(sp)
ffffffc000000880:	694a                	ld	s2,144(sp)
ffffffc000000882:	69aa                	ld	s3,136(sp)
ffffffc000000884:	6a0a                	ld	s4,128(sp)
ffffffc000000886:	7ae6                	ld	s5,120(sp)
ffffffc000000888:	7b46                	ld	s6,112(sp)
ffffffc00000088a:	7ba6                	ld	s7,104(sp)
ffffffc00000088c:	7c06                	ld	s8,96(sp)
ffffffc00000088e:	6ce6                	ld	s9,88(sp)
ffffffc000000890:	6d46                	ld	s10,80(sp)
ffffffc000000892:	614d                	addi	sp,sp,176
ffffffc000000894:	8082                	ret
ffffffc000000896:	1141                	addi	sp,sp,-16
ffffffc000000898:	e406                	sd	ra,8(sp)
ffffffc00000089a:	e022                	sd	s0,0(sp)
ffffffc00000089c:	15000593          	li	a1,336
ffffffc0000008a0:	003ff517          	auipc	a0,0x3ff
ffffffc0000008a4:	78853503          	ld	a0,1928(a0) # 0xffffffc000400028
ffffffc0000008a8:	00000097          	auipc	ra,0x0
ffffffc0000008ac:	ba2080e7          	jalr	-1118(ra) # 0xffffffc00000044a
ffffffc0000008b0:	842a                	mv	s0,a0
ffffffc0000008b2:	4795                	li	a5,5
ffffffc0000008b4:	e11c                	sd	a5,0(a0)
ffffffc0000008b6:	00053423          	sd	zero,8(a0)
ffffffc0000008ba:	14a53023          	sd	a0,320(a0)
ffffffc0000008be:	14053423          	sd	zero,328(a0)
ffffffc0000008c2:	8792                	mv	a5,tp
ffffffc0000008c4:	1782                	slli	a5,a5,0x20
ffffffc0000008c6:	9381                	srli	a5,a5,0x20
ffffffc0000008c8:	078e                	slli	a5,a5,0x3
ffffffc0000008ca:	07c1                	addi	a5,a5,16
ffffffc0000008cc:	97aa                	add	a5,a5,a0
ffffffc0000008ce:	0007b023          	sd	zero,0(a5)
ffffffc0000008d2:	00000097          	auipc	ra,0x0
ffffffc0000008d6:	08e080e7          	jalr	142(ra) # 0xffffffc000000960
ffffffc0000008da:	8792                	mv	a5,tp
ffffffc0000008dc:	003ff797          	auipc	a5,0x3ff
ffffffc0000008e0:	7287ba23          	sd	s0,1844(a5) # 0xffffffc000400010
ffffffc0000008e4:	003ff797          	auipc	a5,0x3ff
ffffffc0000008e8:	72478793          	addi	a5,a5,1828 # 0xffffffc000400008
ffffffc0000008ec:	4729                	li	a4,10
ffffffc0000008ee:	c398                	sw	a4,0(a5)
ffffffc0000008f0:	00078223          	sb	zero,4(a5)
ffffffc0000008f4:	60a2                	ld	ra,8(sp)
ffffffc0000008f6:	6402                	ld	s0,0(sp)
ffffffc0000008f8:	0141                	addi	sp,sp,16
ffffffc0000008fa:	8082                	ret
ffffffc0000008fc:	1141                	addi	sp,sp,-16
ffffffc0000008fe:	e406                	sd	ra,8(sp)
ffffffc000000900:	e022                	sd	s0,0(sp)
ffffffc000000902:	003ff417          	auipc	s0,0x3ff
ffffffc000000906:	70e43403          	ld	s0,1806(s0) # 0xffffffc000400010
ffffffc00000090a:	c415                	beqz	s0,0xffffffc000000936
ffffffc00000090c:	8792                	mv	a5,tp
ffffffc00000090e:	1782                	slli	a5,a5,0x20
ffffffc000000910:	9381                	srli	a5,a5,0x20
ffffffc000000912:	078e                	slli	a5,a5,0x3
ffffffc000000914:	07c1                	addi	a5,a5,16
ffffffc000000916:	97a2                	add	a5,a5,s0
ffffffc000000918:	4729                	li	a4,10
ffffffc00000091a:	e398                	sd	a4,0(a5)
ffffffc00000091c:	8522                	mv	a0,s0
ffffffc00000091e:	00000097          	auipc	ra,0x0
ffffffc000000922:	042080e7          	jalr	66(ra) # 0xffffffc000000960
ffffffc000000926:	8792                	mv	a5,tp
ffffffc000000928:	15000593          	li	a1,336
ffffffc00000092c:	8522                	mv	a0,s0
ffffffc00000092e:	00001097          	auipc	ra,0x1
ffffffc000000932:	830080e7          	jalr	-2000(ra) # 0xffffffc00000115e
ffffffc000000936:	60a2                	ld	ra,8(sp)
ffffffc000000938:	6402                	ld	s0,0(sp)
ffffffc00000093a:	0141                	addi	sp,sp,16
ffffffc00000093c:	8082                	ret
ffffffc00000093e:	8082                	ret
ffffffc000000940:	003ff797          	auipc	a5,0x3ff
ffffffc000000944:	6e078793          	addi	a5,a5,1760 # 0xffffffc000400020
ffffffc000000948:	4729                	li	a4,10
ffffffc00000094a:	c398                	sw	a4,0(a5)
ffffffc00000094c:	00078223          	sb	zero,4(a5)
ffffffc000000950:	003ff797          	auipc	a5,0x3ff
ffffffc000000954:	6c878793          	addi	a5,a5,1736 # 0xffffffc000400018
ffffffc000000958:	c398                	sw	a4,0(a5)
ffffffc00000095a:	00078223          	sb	zero,4(a5)
ffffffc00000095e:	8082                	ret
ffffffc000000960:	1141                	addi	sp,sp,-16
ffffffc000000962:	e406                	sd	ra,8(sp)
ffffffc000000964:	00001097          	auipc	ra,0x1
ffffffc000000968:	aa8080e7          	jalr	-1368(ra) # 0xffffffc00000140c
ffffffc00000096c:	60a2                	ld	ra,8(sp)
ffffffc00000096e:	0141                	addi	sp,sp,16
ffffffc000000970:	8082                	ret
ffffffc000000972:	710d                	addi	sp,sp,-352
ffffffc000000974:	ee86                	sd	ra,344(sp)
ffffffc000000976:	872a                	mv	a4,a0
ffffffc000000978:	47b1                	li	a5,12
ffffffc00000097a:	e03e                	sd	a5,0(sp)
ffffffc00000097c:	e402                	sd	zero,8(sp)
ffffffc00000097e:	850a                	mv	a0,sp
ffffffc000000980:	e28a                	sd	sp,320(sp)
ffffffc000000982:	e682                	sd	zero,328(sp)
ffffffc000000984:	8792                	mv	a5,tp
ffffffc000000986:	1782                	slli	a5,a5,0x20
ffffffc000000988:	9381                	srli	a5,a5,0x20
ffffffc00000098a:	078e                	slli	a5,a5,0x3
ffffffc00000098c:	07c1                	addi	a5,a5,16
ffffffc00000098e:	978a                	add	a5,a5,sp
ffffffc000000990:	46c1                	li	a3,16
ffffffc000000992:	e394                	sd	a3,0(a5)
ffffffc000000994:	f83a                	sd	a4,48(sp)
ffffffc000000996:	00001097          	auipc	ra,0x1
ffffffc00000099a:	a76080e7          	jalr	-1418(ra) # 0xffffffc00000140c
ffffffc00000099e:	60f6                	ld	ra,344(sp)
ffffffc0000009a0:	6135                	addi	sp,sp,352
ffffffc0000009a2:	8082                	ret
ffffffc0000009a4:	8082                	ret
ffffffc0000009a6:	710d                	addi	sp,sp,-352
ffffffc0000009a8:	ee86                	sd	ra,344(sp)
ffffffc0000009aa:	eaa2                	sd	s0,336(sp)
ffffffc0000009ac:	842a                	mv	s0,a0
ffffffc0000009ae:	e002                	sd	zero,0(sp)
ffffffc0000009b0:	e402                	sd	zero,8(sp)
ffffffc0000009b2:	850a                	mv	a0,sp
ffffffc0000009b4:	e28a                	sd	sp,320(sp)
ffffffc0000009b6:	e682                	sd	zero,328(sp)
ffffffc0000009b8:	8792                	mv	a5,tp
ffffffc0000009ba:	1782                	slli	a5,a5,0x20
ffffffc0000009bc:	9381                	srli	a5,a5,0x20
ffffffc0000009be:	078e                	slli	a5,a5,0x3
ffffffc0000009c0:	07c1                	addi	a5,a5,16
ffffffc0000009c2:	978a                	add	a5,a5,sp
ffffffc0000009c4:	6018                	ld	a4,0(s0)
ffffffc0000009c6:	e398                	sd	a4,0(a5)
ffffffc0000009c8:	0005c603          	lbu	a2,0(a1)
ffffffc0000009cc:	0015c683          	lbu	a3,1(a1)
ffffffc0000009d0:	0025c703          	lbu	a4,2(a1)
ffffffc0000009d4:	02c10823          	sb	a2,48(sp)
ffffffc0000009d8:	02d108a3          	sb	a3,49(sp)
ffffffc0000009dc:	02e10923          	sb	a4,50(sp)
ffffffc0000009e0:	0035c703          	lbu	a4,3(a1)
ffffffc0000009e4:	02e109a3          	sb	a4,51(sp)
ffffffc0000009e8:	00001097          	auipc	ra,0x1
ffffffc0000009ec:	a24080e7          	jalr	-1500(ra) # 0xffffffc00000140c
ffffffc0000009f0:	6018                	ld	a4,0(s0)
ffffffc0000009f2:	47ad                	li	a5,11
ffffffc0000009f4:	02f70063          	beq	a4,a5,0xffffffc000000a14
ffffffc0000009f8:	8792                	mv	a5,tp
ffffffc0000009fa:	1782                	slli	a5,a5,0x20
ffffffc0000009fc:	9381                	srli	a5,a5,0x20
ffffffc0000009fe:	078e                	slli	a5,a5,0x3
ffffffc000000a00:	07c1                	addi	a5,a5,16
ffffffc000000a02:	15078793          	addi	a5,a5,336
ffffffc000000a06:	978a                	add	a5,a5,sp
ffffffc000000a08:	eb07b503          	ld	a0,-336(a5)
ffffffc000000a0c:	60f6                	ld	ra,344(sp)
ffffffc000000a0e:	6456                	ld	s0,336(sp)
ffffffc000000a10:	6135                	addi	sp,sp,352
ffffffc000000a12:	8082                	ret
ffffffc000000a14:	6522                	ld	a0,8(sp)
ffffffc000000a16:	bfdd                	j	0xffffffc000000a0c
ffffffc000000a18:	1101                	addi	sp,sp,-32
ffffffc000000a1a:	ec06                	sd	ra,24(sp)
ffffffc000000a1c:	c22a                	sw	a0,4(sp)
ffffffc000000a1e:	47dd                	li	a5,23
ffffffc000000a20:	e43e                	sd	a5,8(sp)
ffffffc000000a22:	004c                	addi	a1,sp,4
ffffffc000000a24:	0028                	addi	a0,sp,8
ffffffc000000a26:	00000097          	auipc	ra,0x0
ffffffc000000a2a:	f80080e7          	jalr	-128(ra) # 0xffffffc0000009a6
ffffffc000000a2e:	a001                	j	0xffffffc000000a2e
ffffffc000000a30:	e111                	bnez	a0,0xffffffc000000a34
ffffffc000000a32:	8082                	ret
ffffffc000000a34:	1141                	addi	sp,sp,-16
ffffffc000000a36:	e406                	sd	ra,8(sp)
ffffffc000000a38:	557d                	li	a0,-1
ffffffc000000a3a:	00000097          	auipc	ra,0x0
ffffffc000000a3e:	fde080e7          	jalr	-34(ra) # 0xffffffc000000a18
ffffffc000000a42:	003ff797          	auipc	a5,0x3ff
ffffffc000000a46:	63e78793          	addi	a5,a5,1598 # 0xffffffc000400080
ffffffc000000a4a:	0007a023          	sw	zero,0(a5)
ffffffc000000a4e:	0007b423          	sd	zero,8(a5)
ffffffc000000a52:	0007b823          	sd	zero,16(a5)
ffffffc000000a56:	0007bc23          	sd	zero,24(a5)
ffffffc000000a5a:	0207b023          	sd	zero,32(a5)
ffffffc000000a5e:	0207b423          	sd	zero,40(a5)
ffffffc000000a62:	0207b823          	sd	zero,48(a5)
ffffffc000000a66:	0207bc23          	sd	zero,56(a5)
ffffffc000000a6a:	0407b023          	sd	zero,64(a5)
ffffffc000000a6e:	003ff797          	auipc	a5,0x3ff
ffffffc000000a72:	5c278793          	addi	a5,a5,1474 # 0xffffffc000400030
ffffffc000000a76:	4729                	li	a4,10
ffffffc000000a78:	c398                	sw	a4,0(a5)
ffffffc000000a7a:	00078223          	sb	zero,4(a5)
ffffffc000000a7e:	8082                	ret
ffffffc000000a80:	00400597          	auipc	a1,0x400
ffffffc000000a84:	64758593          	addi	a1,a1,1607 # 0xffffffc0004010c7
ffffffc000000a88:	77fd                	lui	a5,0xfffff
ffffffc000000a8a:	8dfd                	and	a1,a1,a5
ffffffc000000a8c:	f00017b7          	lui	a5,0xf0001
ffffffc000000a90:	07aa                	slli	a5,a5,0xa
ffffffc000000a92:	00f5f363          	bgeu	a1,a5,0xffffffc000000a98
ffffffc000000a96:	85be                	mv	a1,a5
ffffffc000000a98:	003ff797          	auipc	a5,0x3ff
ffffffc000000a9c:	5c078793          	addi	a5,a5,1472 # 0xffffffc000400058
ffffffc000000aa0:	00078023          	sb	zero,0(a5)
ffffffc000000aa4:	000780a3          	sb	zero,1(a5)
ffffffc000000aa8:	00078123          	sb	zero,2(a5)
ffffffc000000aac:	000781a3          	sb	zero,3(a5)
ffffffc000000ab0:	00078223          	sb	zero,4(a5)
ffffffc000000ab4:	000782a3          	sb	zero,5(a5)
ffffffc000000ab8:	00078323          	sb	zero,6(a5)
ffffffc000000abc:	000783a3          	sb	zero,7(a5)
ffffffc000000ac0:	00078423          	sb	zero,8(a5)
ffffffc000000ac4:	000784a3          	sb	zero,9(a5)
ffffffc000000ac8:	00078523          	sb	zero,10(a5)
ffffffc000000acc:	000785a3          	sb	zero,11(a5)
ffffffc000000ad0:	00078623          	sb	zero,12(a5)
ffffffc000000ad4:	000786a3          	sb	zero,13(a5)
ffffffc000000ad8:	00078723          	sb	zero,14(a5)
ffffffc000000adc:	000787a3          	sb	zero,15(a5)
ffffffc000000ae0:	00078823          	sb	zero,16(a5)
ffffffc000000ae4:	000788a3          	sb	zero,17(a5)
ffffffc000000ae8:	00078923          	sb	zero,18(a5)
ffffffc000000aec:	000789a3          	sb	zero,19(a5)
ffffffc000000af0:	00078a23          	sb	zero,20(a5)
ffffffc000000af4:	00078aa3          	sb	zero,21(a5)
ffffffc000000af8:	00078b23          	sb	zero,22(a5)
ffffffc000000afc:	00078ba3          	sb	zero,23(a5)
ffffffc000000b00:	00078c23          	sb	zero,24(a5)
ffffffc000000b04:	00078ca3          	sb	zero,25(a5)
ffffffc000000b08:	00078d23          	sb	zero,26(a5)
ffffffc000000b0c:	00078da3          	sb	zero,27(a5)
ffffffc000000b10:	00078e23          	sb	zero,28(a5)
ffffffc000000b14:	00078ea3          	sb	zero,29(a5)
ffffffc000000b18:	00078f23          	sb	zero,30(a5)
ffffffc000000b1c:	00078fa3          	sb	zero,31(a5)
ffffffc000000b20:	e18c                	sd	a1,0(a1)
ffffffc000000b22:	00100737          	lui	a4,0x100
ffffffc000000b26:	e598                	sd	a4,8(a1)
ffffffc000000b28:	0005b823          	sd	zero,16(a1)
ffffffc000000b2c:	0005bc23          	sd	zero,24(a1)
ffffffc000000b30:	0187c603          	lbu	a2,24(a5)
ffffffc000000b34:	0197c683          	lbu	a3,25(a5)
ffffffc000000b38:	06a2                	slli	a3,a3,0x8
ffffffc000000b3a:	8ed1                	or	a3,a3,a2
ffffffc000000b3c:	01a7c603          	lbu	a2,26(a5)
ffffffc000000b40:	0642                	slli	a2,a2,0x10
ffffffc000000b42:	8e55                	or	a2,a2,a3
ffffffc000000b44:	01b7c683          	lbu	a3,27(a5)
ffffffc000000b48:	06e2                	slli	a3,a3,0x18
ffffffc000000b4a:	8ed1                	or	a3,a3,a2
ffffffc000000b4c:	01c7c603          	lbu	a2,28(a5)
ffffffc000000b50:	1602                	slli	a2,a2,0x20
ffffffc000000b52:	8e55                	or	a2,a2,a3
ffffffc000000b54:	01d7c683          	lbu	a3,29(a5)
ffffffc000000b58:	16a2                	slli	a3,a3,0x28
ffffffc000000b5a:	8ed1                	or	a3,a3,a2
ffffffc000000b5c:	01e7c603          	lbu	a2,30(a5)
ffffffc000000b60:	1642                	slli	a2,a2,0x30
ffffffc000000b62:	8e55                	or	a2,a2,a3
ffffffc000000b64:	01f7c683          	lbu	a3,31(a5)
ffffffc000000b68:	16e2                	slli	a3,a3,0x38
ffffffc000000b6a:	8ed1                	or	a3,a3,a2
ffffffc000000b6c:	9736                	add	a4,a4,a3
ffffffc000000b6e:	00d78c23          	sb	a3,24(a5)
ffffffc000000b72:	00875693          	srli	a3,a4,0x8
ffffffc000000b76:	00d78ca3          	sb	a3,25(a5)
ffffffc000000b7a:	01075693          	srli	a3,a4,0x10
ffffffc000000b7e:	00d78d23          	sb	a3,26(a5)
ffffffc000000b82:	0187569b          	srliw	a3,a4,0x18
ffffffc000000b86:	00d78da3          	sb	a3,27(a5)
ffffffc000000b8a:	02075693          	srli	a3,a4,0x20
ffffffc000000b8e:	00d78e23          	sb	a3,28(a5)
ffffffc000000b92:	02875693          	srli	a3,a4,0x28
ffffffc000000b96:	00d78ea3          	sb	a3,29(a5)
ffffffc000000b9a:	03075693          	srli	a3,a4,0x30
ffffffc000000b9e:	00d78f23          	sb	a3,30(a5)
ffffffc000000ba2:	9361                	srli	a4,a4,0x38
ffffffc000000ba4:	00e78fa3          	sb	a4,31(a5)
ffffffc000000ba8:	0087c703          	lbu	a4,8(a5)
ffffffc000000bac:	0097c683          	lbu	a3,9(a5)
ffffffc000000bb0:	06a2                	slli	a3,a3,0x8
ffffffc000000bb2:	8ed9                	or	a3,a3,a4
ffffffc000000bb4:	00a7c703          	lbu	a4,10(a5)
ffffffc000000bb8:	0742                	slli	a4,a4,0x10
ffffffc000000bba:	8f55                	or	a4,a4,a3
ffffffc000000bbc:	00b7c683          	lbu	a3,11(a5)
ffffffc000000bc0:	06e2                	slli	a3,a3,0x18
ffffffc000000bc2:	8ed9                	or	a3,a3,a4
ffffffc000000bc4:	00c7c703          	lbu	a4,12(a5)
ffffffc000000bc8:	1702                	slli	a4,a4,0x20
ffffffc000000bca:	8f55                	or	a4,a4,a3
ffffffc000000bcc:	00d7c683          	lbu	a3,13(a5)
ffffffc000000bd0:	16a2                	slli	a3,a3,0x28
ffffffc000000bd2:	8ed9                	or	a3,a3,a4
ffffffc000000bd4:	00e7c703          	lbu	a4,14(a5)
ffffffc000000bd8:	1742                	slli	a4,a4,0x30
ffffffc000000bda:	8f55                	or	a4,a4,a3
ffffffc000000bdc:	00f7c783          	lbu	a5,15(a5)
ffffffc000000be0:	17e2                	slli	a5,a5,0x38
ffffffc000000be2:	8fd9                	or	a5,a5,a4
ffffffc000000be4:	12078f63          	beqz	a5,0xffffffc000000d22
ffffffc000000be8:	6188                	ld	a0,0(a1)
ffffffc000000bea:	6590                	ld	a2,8(a1)
ffffffc000000bec:	962a                	add	a2,a2,a0
ffffffc000000bee:	873e                	mv	a4,a5
ffffffc000000bf0:	6314                	ld	a3,0(a4)
ffffffc000000bf2:	00d60463          	beq	a2,a3,0xffffffc000000bfa
ffffffc000000bf6:	6f18                	ld	a4,24(a4)
ffffffc000000bf8:	ff65                	bnez	a4,0xffffffc000000bf0
ffffffc000000bfa:	6394                	ld	a3,0(a5)
ffffffc000000bfc:	6790                	ld	a2,8(a5)
ffffffc000000bfe:	96b2                	add	a3,a3,a2
ffffffc000000c00:	36d50a63          	beq	a0,a3,0xffffffc000000f74
ffffffc000000c04:	6f9c                	ld	a5,24(a5)
ffffffc000000c06:	fbf5                	bnez	a5,0xffffffc000000bfa
ffffffc000000c08:	003ff797          	auipc	a5,0x3ff
ffffffc000000c0c:	45078793          	addi	a5,a5,1104 # 0xffffffc000400058
ffffffc000000c10:	0007c683          	lbu	a3,0(a5)
ffffffc000000c14:	0017c603          	lbu	a2,1(a5)
ffffffc000000c18:	0622                	slli	a2,a2,0x8
ffffffc000000c1a:	8e55                	or	a2,a2,a3
ffffffc000000c1c:	0027c683          	lbu	a3,2(a5)
ffffffc000000c20:	06c2                	slli	a3,a3,0x10
ffffffc000000c22:	8ed1                	or	a3,a3,a2
ffffffc000000c24:	0037c603          	lbu	a2,3(a5)
ffffffc000000c28:	0662                	slli	a2,a2,0x18
ffffffc000000c2a:	8e55                	or	a2,a2,a3
ffffffc000000c2c:	0047c683          	lbu	a3,4(a5)
ffffffc000000c30:	1682                	slli	a3,a3,0x20
ffffffc000000c32:	8ed1                	or	a3,a3,a2
ffffffc000000c34:	0057c603          	lbu	a2,5(a5)
ffffffc000000c38:	1622                	slli	a2,a2,0x28
ffffffc000000c3a:	8e55                	or	a2,a2,a3
ffffffc000000c3c:	0067c683          	lbu	a3,6(a5)
ffffffc000000c40:	16c2                	slli	a3,a3,0x30
ffffffc000000c42:	8ed1                	or	a3,a3,a2
ffffffc000000c44:	0077c783          	lbu	a5,7(a5)
ffffffc000000c48:	17e2                	slli	a5,a5,0x38
ffffffc000000c4a:	8fd5                	or	a5,a5,a3
ffffffc000000c4c:	efe9                	bnez	a5,0xffffffc000000d26
ffffffc000000c4e:	0005b823          	sd	zero,16(a1)
ffffffc000000c52:	0005bc23          	sd	zero,24(a1)
ffffffc000000c56:	003ff797          	auipc	a5,0x3ff
ffffffc000000c5a:	40278793          	addi	a5,a5,1026 # 0xffffffc000400058
ffffffc000000c5e:	00078423          	sb	zero,8(a5)
ffffffc000000c62:	0085d693          	srli	a3,a1,0x8
ffffffc000000c66:	00d784a3          	sb	a3,9(a5)
ffffffc000000c6a:	0105d693          	srli	a3,a1,0x10
ffffffc000000c6e:	00d78523          	sb	a3,10(a5)
ffffffc000000c72:	0185d69b          	srliw	a3,a1,0x18
ffffffc000000c76:	00d785a3          	sb	a3,11(a5)
ffffffc000000c7a:	0205d693          	srli	a3,a1,0x20
ffffffc000000c7e:	00d78623          	sb	a3,12(a5)
ffffffc000000c82:	0285d693          	srli	a3,a1,0x28
ffffffc000000c86:	00d786a3          	sb	a3,13(a5)
ffffffc000000c8a:	0305d693          	srli	a3,a1,0x30
ffffffc000000c8e:	00d78723          	sb	a3,14(a5)
ffffffc000000c92:	0385d693          	srli	a3,a1,0x38
ffffffc000000c96:	00d787a3          	sb	a3,15(a5)
ffffffc000000c9a:	4785                	li	a5,1
ffffffc000000c9c:	003ff697          	auipc	a3,0x3ff
ffffffc000000ca0:	3bc68693          	addi	a3,a3,956 # 0xffffffc000400058
ffffffc000000ca4:	00068823          	sb	zero,16(a3)
ffffffc000000ca8:	0085d613          	srli	a2,a1,0x8
ffffffc000000cac:	00c688a3          	sb	a2,17(a3)
ffffffc000000cb0:	0105d613          	srli	a2,a1,0x10
ffffffc000000cb4:	00c68923          	sb	a2,18(a3)
ffffffc000000cb8:	0185d61b          	srliw	a2,a1,0x18
ffffffc000000cbc:	00c689a3          	sb	a2,19(a3)
ffffffc000000cc0:	0205d613          	srli	a2,a1,0x20
ffffffc000000cc4:	00c68a23          	sb	a2,20(a3)
ffffffc000000cc8:	0285d613          	srli	a2,a1,0x28
ffffffc000000ccc:	00c68aa3          	sb	a2,21(a3)
ffffffc000000cd0:	0305d613          	srli	a2,a1,0x30
ffffffc000000cd4:	00c68b23          	sb	a2,22(a3)
ffffffc000000cd8:	0385d613          	srli	a2,a1,0x38
ffffffc000000cdc:	00c68ba3          	sb	a2,23(a3)
ffffffc000000ce0:	00f68023          	sb	a5,0(a3)
ffffffc000000ce4:	0087d613          	srli	a2,a5,0x8
ffffffc000000ce8:	00c680a3          	sb	a2,1(a3)
ffffffc000000cec:	0107d613          	srli	a2,a5,0x10
ffffffc000000cf0:	00c68123          	sb	a2,2(a3)
ffffffc000000cf4:	0187d61b          	srliw	a2,a5,0x18
ffffffc000000cf8:	00c681a3          	sb	a2,3(a3)
ffffffc000000cfc:	0207d613          	srli	a2,a5,0x20
ffffffc000000d00:	00c68223          	sb	a2,4(a3)
ffffffc000000d04:	0287d613          	srli	a2,a5,0x28
ffffffc000000d08:	00c682a3          	sb	a2,5(a3)
ffffffc000000d0c:	0307d613          	srli	a2,a5,0x30
ffffffc000000d10:	00c68323          	sb	a2,6(a3)
ffffffc000000d14:	93e1                	srli	a5,a5,0x38
ffffffc000000d16:	00f683a3          	sb	a5,7(a3)
ffffffc000000d1a:	4781                	li	a5,0
ffffffc000000d1c:	24071d63          	bnez	a4,0xffffffc000000f76
ffffffc000000d20:	a629                	j	0xffffffc00000102a
ffffffc000000d22:	873e                	mv	a4,a5
ffffffc000000d24:	b5d5                	j	0xffffffc000000c08
ffffffc000000d26:	003ff697          	auipc	a3,0x3ff
ffffffc000000d2a:	33268693          	addi	a3,a3,818 # 0xffffffc000400058
ffffffc000000d2e:	0106c603          	lbu	a2,16(a3)
ffffffc000000d32:	0116c503          	lbu	a0,17(a3)
ffffffc000000d36:	0522                	slli	a0,a0,0x8
ffffffc000000d38:	8d51                	or	a0,a0,a2
ffffffc000000d3a:	0126c603          	lbu	a2,18(a3)
ffffffc000000d3e:	0642                	slli	a2,a2,0x10
ffffffc000000d40:	8e49                	or	a2,a2,a0
ffffffc000000d42:	0136c503          	lbu	a0,19(a3)
ffffffc000000d46:	0562                	slli	a0,a0,0x18
ffffffc000000d48:	8d51                	or	a0,a0,a2
ffffffc000000d4a:	0146c603          	lbu	a2,20(a3)
ffffffc000000d4e:	1602                	slli	a2,a2,0x20
ffffffc000000d50:	8e49                	or	a2,a2,a0
ffffffc000000d52:	0156c503          	lbu	a0,21(a3)
ffffffc000000d56:	1522                	slli	a0,a0,0x28
ffffffc000000d58:	8d51                	or	a0,a0,a2
ffffffc000000d5a:	0166c603          	lbu	a2,22(a3)
ffffffc000000d5e:	1642                	slli	a2,a2,0x30
ffffffc000000d60:	8e49                	or	a2,a2,a0
ffffffc000000d62:	0176c683          	lbu	a3,23(a3)
ffffffc000000d66:	16e2                	slli	a3,a3,0x38
ffffffc000000d68:	8ed1                	or	a3,a3,a2
ffffffc000000d6a:	ee8c                	sd	a1,24(a3)
ffffffc000000d6c:	e994                	sd	a3,16(a1)
ffffffc000000d6e:	0005bc23          	sd	zero,24(a1)
ffffffc000000d72:	0785                	addi	a5,a5,1
ffffffc000000d74:	b725                	j	0xffffffc000000c9c
ffffffc000000d76:	003ff717          	auipc	a4,0x3ff
ffffffc000000d7a:	2e270713          	addi	a4,a4,738 # 0xffffffc000400058
ffffffc000000d7e:	00070423          	sb	zero,8(a4)
ffffffc000000d82:	000704a3          	sb	zero,9(a4)
ffffffc000000d86:	00070523          	sb	zero,10(a4)
ffffffc000000d8a:	000705a3          	sb	zero,11(a4)
ffffffc000000d8e:	00070623          	sb	zero,12(a4)
ffffffc000000d92:	000706a3          	sb	zero,13(a4)
ffffffc000000d96:	00070723          	sb	zero,14(a4)
ffffffc000000d9a:	000707a3          	sb	zero,15(a4)
ffffffc000000d9e:	00070823          	sb	zero,16(a4)
ffffffc000000da2:	000708a3          	sb	zero,17(a4)
ffffffc000000da6:	00070923          	sb	zero,18(a4)
ffffffc000000daa:	000709a3          	sb	zero,19(a4)
ffffffc000000dae:	00070a23          	sb	zero,20(a4)
ffffffc000000db2:	00070aa3          	sb	zero,21(a4)
ffffffc000000db6:	00070b23          	sb	zero,22(a4)
ffffffc000000dba:	00070ba3          	sb	zero,23(a4)
ffffffc000000dbe:	00070023          	sb	zero,0(a4)
ffffffc000000dc2:	000700a3          	sb	zero,1(a4)
ffffffc000000dc6:	00070123          	sb	zero,2(a4)
ffffffc000000dca:	000701a3          	sb	zero,3(a4)
ffffffc000000dce:	00070223          	sb	zero,4(a4)
ffffffc000000dd2:	000702a3          	sb	zero,5(a4)
ffffffc000000dd6:	00070323          	sb	zero,6(a4)
ffffffc000000dda:	000703a3          	sb	zero,7(a4)
ffffffc000000dde:	a489                	j	0xffffffc000001020
ffffffc000000de0:	24068063          	beqz	a3,0xffffffc000001020
ffffffc000000de4:	003ff617          	auipc	a2,0x3ff
ffffffc000000de8:	27460613          	addi	a2,a2,628 # 0xffffffc000400058
ffffffc000000dec:	00864503          	lbu	a0,8(a2)
ffffffc000000df0:	00964703          	lbu	a4,9(a2)
ffffffc000000df4:	0722                	slli	a4,a4,0x8
ffffffc000000df6:	8f49                	or	a4,a4,a0
ffffffc000000df8:	00a64503          	lbu	a0,10(a2)
ffffffc000000dfc:	0542                	slli	a0,a0,0x10
ffffffc000000dfe:	8d59                	or	a0,a0,a4
ffffffc000000e00:	00b64703          	lbu	a4,11(a2)
ffffffc000000e04:	0762                	slli	a4,a4,0x18
ffffffc000000e06:	8f49                	or	a4,a4,a0
ffffffc000000e08:	00c64503          	lbu	a0,12(a2)
ffffffc000000e0c:	1502                	slli	a0,a0,0x20
ffffffc000000e0e:	8d59                	or	a0,a0,a4
ffffffc000000e10:	00d64703          	lbu	a4,13(a2)
ffffffc000000e14:	1722                	slli	a4,a4,0x28
ffffffc000000e16:	8f49                	or	a4,a4,a0
ffffffc000000e18:	00e64503          	lbu	a0,14(a2)
ffffffc000000e1c:	1542                	slli	a0,a0,0x30
ffffffc000000e1e:	8d59                	or	a0,a0,a4
ffffffc000000e20:	00f64703          	lbu	a4,15(a2)
ffffffc000000e24:	1762                	slli	a4,a4,0x38
ffffffc000000e26:	8f49                	or	a4,a4,a0
ffffffc000000e28:	6f18                	ld	a4,24(a4)
ffffffc000000e2a:	00e60423          	sb	a4,8(a2)
ffffffc000000e2e:	00875513          	srli	a0,a4,0x8
ffffffc000000e32:	00a604a3          	sb	a0,9(a2)
ffffffc000000e36:	01075513          	srli	a0,a4,0x10
ffffffc000000e3a:	00a60523          	sb	a0,10(a2)
ffffffc000000e3e:	0187551b          	srliw	a0,a4,0x18
ffffffc000000e42:	00a605a3          	sb	a0,11(a2)
ffffffc000000e46:	02075513          	srli	a0,a4,0x20
ffffffc000000e4a:	00a60623          	sb	a0,12(a2)
ffffffc000000e4e:	02875513          	srli	a0,a4,0x28
ffffffc000000e52:	00a606a3          	sb	a0,13(a2)
ffffffc000000e56:	03075513          	srli	a0,a4,0x30
ffffffc000000e5a:	00a60723          	sb	a0,14(a2)
ffffffc000000e5e:	03875513          	srli	a0,a4,0x38
ffffffc000000e62:	00a607a3          	sb	a0,15(a2)
ffffffc000000e66:	00073823          	sd	zero,16(a4)
ffffffc000000e6a:	fff68713          	addi	a4,a3,-1
ffffffc000000e6e:	00e60023          	sb	a4,0(a2)
ffffffc000000e72:	00875693          	srli	a3,a4,0x8
ffffffc000000e76:	00d600a3          	sb	a3,1(a2)
ffffffc000000e7a:	01075693          	srli	a3,a4,0x10
ffffffc000000e7e:	00d60123          	sb	a3,2(a2)
ffffffc000000e82:	0187569b          	srliw	a3,a4,0x18
ffffffc000000e86:	00d601a3          	sb	a3,3(a2)
ffffffc000000e8a:	02075693          	srli	a3,a4,0x20
ffffffc000000e8e:	00d60223          	sb	a3,4(a2)
ffffffc000000e92:	02875693          	srli	a3,a4,0x28
ffffffc000000e96:	00d602a3          	sb	a3,5(a2)
ffffffc000000e9a:	03075693          	srli	a3,a4,0x30
ffffffc000000e9e:	00d60323          	sb	a3,6(a2)
ffffffc000000ea2:	9361                	srli	a4,a4,0x38
ffffffc000000ea4:	00e603a3          	sb	a4,7(a2)
ffffffc000000ea8:	aaa5                	j	0xffffffc000001020
ffffffc000000eaa:	16068b63          	beqz	a3,0xffffffc000001020
ffffffc000000eae:	003ff617          	auipc	a2,0x3ff
ffffffc000000eb2:	1aa60613          	addi	a2,a2,426 # 0xffffffc000400058
ffffffc000000eb6:	01064503          	lbu	a0,16(a2)
ffffffc000000eba:	01164703          	lbu	a4,17(a2)
ffffffc000000ebe:	0722                	slli	a4,a4,0x8
ffffffc000000ec0:	8f49                	or	a4,a4,a0
ffffffc000000ec2:	01264503          	lbu	a0,18(a2)
ffffffc000000ec6:	0542                	slli	a0,a0,0x10
ffffffc000000ec8:	8d59                	or	a0,a0,a4
ffffffc000000eca:	01364703          	lbu	a4,19(a2)
ffffffc000000ece:	0762                	slli	a4,a4,0x18
ffffffc000000ed0:	8f49                	or	a4,a4,a0
ffffffc000000ed2:	01464503          	lbu	a0,20(a2)
ffffffc000000ed6:	1502                	slli	a0,a0,0x20
ffffffc000000ed8:	8d59                	or	a0,a0,a4
ffffffc000000eda:	01564703          	lbu	a4,21(a2)
ffffffc000000ede:	1722                	slli	a4,a4,0x28
ffffffc000000ee0:	8f49                	or	a4,a4,a0
ffffffc000000ee2:	01664503          	lbu	a0,22(a2)
ffffffc000000ee6:	1542                	slli	a0,a0,0x30
ffffffc000000ee8:	8d59                	or	a0,a0,a4
ffffffc000000eea:	01764703          	lbu	a4,23(a2)
ffffffc000000eee:	1762                	slli	a4,a4,0x38
ffffffc000000ef0:	8f49                	or	a4,a4,a0
ffffffc000000ef2:	6b18                	ld	a4,16(a4)
ffffffc000000ef4:	00e60823          	sb	a4,16(a2)
ffffffc000000ef8:	00875513          	srli	a0,a4,0x8
ffffffc000000efc:	00a608a3          	sb	a0,17(a2)
ffffffc000000f00:	01075513          	srli	a0,a4,0x10
ffffffc000000f04:	00a60923          	sb	a0,18(a2)
ffffffc000000f08:	0187551b          	srliw	a0,a4,0x18
ffffffc000000f0c:	00a609a3          	sb	a0,19(a2)
ffffffc000000f10:	02075513          	srli	a0,a4,0x20
ffffffc000000f14:	00a60a23          	sb	a0,20(a2)
ffffffc000000f18:	02875513          	srli	a0,a4,0x28
ffffffc000000f1c:	00a60aa3          	sb	a0,21(a2)
ffffffc000000f20:	03075513          	srli	a0,a4,0x30
ffffffc000000f24:	00a60b23          	sb	a0,22(a2)
ffffffc000000f28:	03875513          	srli	a0,a4,0x38
ffffffc000000f2c:	00a60ba3          	sb	a0,23(a2)
ffffffc000000f30:	00073c23          	sd	zero,24(a4)
ffffffc000000f34:	fff68713          	addi	a4,a3,-1
ffffffc000000f38:	00e60023          	sb	a4,0(a2)
ffffffc000000f3c:	00875693          	srli	a3,a4,0x8
ffffffc000000f40:	00d600a3          	sb	a3,1(a2)
ffffffc000000f44:	01075693          	srli	a3,a4,0x10
ffffffc000000f48:	00d60123          	sb	a3,2(a2)
ffffffc000000f4c:	0187569b          	srliw	a3,a4,0x18
ffffffc000000f50:	00d601a3          	sb	a3,3(a2)
ffffffc000000f54:	02075693          	srli	a3,a4,0x20
ffffffc000000f58:	00d60223          	sb	a3,4(a2)
ffffffc000000f5c:	02875693          	srli	a3,a4,0x28
ffffffc000000f60:	00d602a3          	sb	a3,5(a2)
ffffffc000000f64:	03075693          	srli	a3,a4,0x30
ffffffc000000f68:	00d60323          	sb	a3,6(a2)
ffffffc000000f6c:	9361                	srli	a4,a4,0x38
ffffffc000000f6e:	00e603a3          	sb	a4,7(a2)
ffffffc000000f72:	a07d                	j	0xffffffc000001020
ffffffc000000f74:	c75d                	beqz	a4,0xffffffc000001022
ffffffc000000f76:	6594                	ld	a3,8(a1)
ffffffc000000f78:	6710                	ld	a2,8(a4)
ffffffc000000f7a:	96b2                	add	a3,a3,a2
ffffffc000000f7c:	e594                	sd	a3,8(a1)
ffffffc000000f7e:	003ff697          	auipc	a3,0x3ff
ffffffc000000f82:	0da68693          	addi	a3,a3,218 # 0xffffffc000400058
ffffffc000000f86:	0006c603          	lbu	a2,0(a3)
ffffffc000000f8a:	0016c503          	lbu	a0,1(a3)
ffffffc000000f8e:	0522                	slli	a0,a0,0x8
ffffffc000000f90:	8d51                	or	a0,a0,a2
ffffffc000000f92:	0026c603          	lbu	a2,2(a3)
ffffffc000000f96:	0642                	slli	a2,a2,0x10
ffffffc000000f98:	8e49                	or	a2,a2,a0
ffffffc000000f9a:	0036c503          	lbu	a0,3(a3)
ffffffc000000f9e:	0562                	slli	a0,a0,0x18
ffffffc000000fa0:	8d51                	or	a0,a0,a2
ffffffc000000fa2:	0046c603          	lbu	a2,4(a3)
ffffffc000000fa6:	1602                	slli	a2,a2,0x20
ffffffc000000fa8:	8e49                	or	a2,a2,a0
ffffffc000000faa:	0056c503          	lbu	a0,5(a3)
ffffffc000000fae:	1522                	slli	a0,a0,0x28
ffffffc000000fb0:	8d51                	or	a0,a0,a2
ffffffc000000fb2:	0066c603          	lbu	a2,6(a3)
ffffffc000000fb6:	1642                	slli	a2,a2,0x30
ffffffc000000fb8:	8e49                	or	a2,a2,a0
ffffffc000000fba:	0076c683          	lbu	a3,7(a3)
ffffffc000000fbe:	16e2                	slli	a3,a3,0x38
ffffffc000000fc0:	8ed1                	or	a3,a3,a2
ffffffc000000fc2:	4605                	li	a2,1
ffffffc000000fc4:	dac689e3          	beq	a3,a2,0xffffffc000000d76
ffffffc000000fc8:	6b08                	ld	a0,16(a4)
ffffffc000000fca:	e0050be3          	beqz	a0,0xffffffc000000de0
ffffffc000000fce:	6f10                	ld	a2,24(a4)
ffffffc000000fd0:	ec060de3          	beqz	a2,0xffffffc000000eaa
ffffffc000000fd4:	ed10                	sd	a2,24(a0)
ffffffc000000fd6:	6b18                	ld	a4,16(a4)
ffffffc000000fd8:	ea18                	sd	a4,16(a2)
ffffffc000000fda:	003ff617          	auipc	a2,0x3ff
ffffffc000000fde:	07e60613          	addi	a2,a2,126 # 0xffffffc000400058
ffffffc000000fe2:	fff68713          	addi	a4,a3,-1
ffffffc000000fe6:	00e60023          	sb	a4,0(a2)
ffffffc000000fea:	00875693          	srli	a3,a4,0x8
ffffffc000000fee:	00d600a3          	sb	a3,1(a2)
ffffffc000000ff2:	01075693          	srli	a3,a4,0x10
ffffffc000000ff6:	00d60123          	sb	a3,2(a2)
ffffffc000000ffa:	0187569b          	srliw	a3,a4,0x18
ffffffc000000ffe:	00d601a3          	sb	a3,3(a2)
ffffffc000001002:	02075693          	srli	a3,a4,0x20
ffffffc000001006:	00d60223          	sb	a3,4(a2)
ffffffc00000100a:	02875693          	srli	a3,a4,0x28
ffffffc00000100e:	00d602a3          	sb	a3,5(a2)
ffffffc000001012:	03075693          	srli	a3,a4,0x30
ffffffc000001016:	00d60323          	sb	a3,6(a2)
ffffffc00000101a:	9361                	srli	a4,a4,0x38
ffffffc00000101c:	00e603a3          	sb	a4,7(a2)
ffffffc000001020:	c789                	beqz	a5,0xffffffc00000102a
ffffffc000001022:	6798                	ld	a4,8(a5)
ffffffc000001024:	6594                	ld	a3,8(a1)
ffffffc000001026:	9736                	add	a4,a4,a3
ffffffc000001028:	e798                	sd	a4,8(a5)
ffffffc00000102a:	003ff797          	auipc	a5,0x3ff
ffffffc00000102e:	02e78793          	addi	a5,a5,46 # 0xffffffc000400058
ffffffc000001032:	02078023          	sb	zero,32(a5)
ffffffc000001036:	003ff717          	auipc	a4,0x3ff
ffffffc00000103a:	fef73923          	sd	a5,-14(a4) # 0xffffffc000400028
ffffffc00000103e:	8082                	ret
ffffffc000001040:	ff853783          	ld	a5,-8(a0)
ffffffc000001044:	477d                	li	a4,31
ffffffc000001046:	00f76363          	bltu	a4,a5,0xffffffc00000104c
ffffffc00000104a:	8082                	ret
ffffffc00000104c:	ff050893          	addi	a7,a0,-16
ffffffc000001050:	ff053803          	ld	a6,-16(a0)
ffffffc000001054:	ff153823          	sd	a7,-16(a0)
ffffffc000001058:	00053023          	sd	zero,0(a0)
ffffffc00000105c:	00053423          	sd	zero,8(a0)
ffffffc000001060:	01883703          	ld	a4,24(a6)
ffffffc000001064:	97ba                	add	a5,a5,a4
ffffffc000001066:	00f83c23          	sd	a5,24(a6)
ffffffc00000106a:	00883783          	ld	a5,8(a6)
ffffffc00000106e:	873e                	mv	a4,a5
ffffffc000001070:	c395                	beqz	a5,0xffffffc000001094
ffffffc000001072:	ff053583          	ld	a1,-16(a0)
ffffffc000001076:	ff853603          	ld	a2,-8(a0)
ffffffc00000107a:	962e                	add	a2,a2,a1
ffffffc00000107c:	6314                	ld	a3,0(a4)
ffffffc00000107e:	00d60463          	beq	a2,a3,0xffffffc000001086
ffffffc000001082:	6f18                	ld	a4,24(a4)
ffffffc000001084:	ff65                	bnez	a4,0xffffffc00000107c
ffffffc000001086:	6394                	ld	a3,0(a5)
ffffffc000001088:	6790                	ld	a2,8(a5)
ffffffc00000108a:	96b2                	add	a3,a3,a2
ffffffc00000108c:	08d58963          	beq	a1,a3,0xffffffc00000111e
ffffffc000001090:	6f9c                	ld	a5,24(a5)
ffffffc000001092:	fbf5                	bnez	a5,0xffffffc000001086
ffffffc000001094:	00083783          	ld	a5,0(a6)
ffffffc000001098:	e38d                	bnez	a5,0xffffffc0000010ba
ffffffc00000109a:	00053023          	sd	zero,0(a0)
ffffffc00000109e:	00053423          	sd	zero,8(a0)
ffffffc0000010a2:	01183423          	sd	a7,8(a6)
ffffffc0000010a6:	01183823          	sd	a7,16(a6)
ffffffc0000010aa:	00083783          	ld	a5,0(a6)
ffffffc0000010ae:	0785                	addi	a5,a5,1
ffffffc0000010b0:	00f83023          	sd	a5,0(a6)
ffffffc0000010b4:	4781                	li	a5,0
ffffffc0000010b6:	e72d                	bnez	a4,0xffffffc000001120
ffffffc0000010b8:	8082                	ret
ffffffc0000010ba:	01083783          	ld	a5,16(a6)
ffffffc0000010be:	0117bc23          	sd	a7,24(a5)
ffffffc0000010c2:	01083783          	ld	a5,16(a6)
ffffffc0000010c6:	e11c                	sd	a5,0(a0)
ffffffc0000010c8:	00053423          	sd	zero,8(a0)
ffffffc0000010cc:	01183823          	sd	a7,16(a6)
ffffffc0000010d0:	00083783          	ld	a5,0(a6)
ffffffc0000010d4:	0785                	addi	a5,a5,1
ffffffc0000010d6:	bfe9                	j	0xffffffc0000010b0
ffffffc0000010d8:	00083423          	sd	zero,8(a6)
ffffffc0000010dc:	00083823          	sd	zero,16(a6)
ffffffc0000010e0:	00083023          	sd	zero,0(a6)
ffffffc0000010e4:	a0ad                	j	0xffffffc00000114e
ffffffc0000010e6:	c6a5                	beqz	a3,0xffffffc00000114e
ffffffc0000010e8:	00883703          	ld	a4,8(a6)
ffffffc0000010ec:	6f18                	ld	a4,24(a4)
ffffffc0000010ee:	00e83423          	sd	a4,8(a6)
ffffffc0000010f2:	00073823          	sd	zero,16(a4)
ffffffc0000010f6:	00083703          	ld	a4,0(a6)
ffffffc0000010fa:	177d                	addi	a4,a4,-1
ffffffc0000010fc:	00e83023          	sd	a4,0(a6)
ffffffc000001100:	a0b9                	j	0xffffffc00000114e
ffffffc000001102:	c6b1                	beqz	a3,0xffffffc00000114e
ffffffc000001104:	01083703          	ld	a4,16(a6)
ffffffc000001108:	6b18                	ld	a4,16(a4)
ffffffc00000110a:	00e83823          	sd	a4,16(a6)
ffffffc00000110e:	00073c23          	sd	zero,24(a4)
ffffffc000001112:	00083703          	ld	a4,0(a6)
ffffffc000001116:	177d                	addi	a4,a4,-1
ffffffc000001118:	00e83023          	sd	a4,0(a6)
ffffffc00000111c:	a80d                	j	0xffffffc00000114e
ffffffc00000111e:	cb15                	beqz	a4,0xffffffc000001152
ffffffc000001120:	ff853683          	ld	a3,-8(a0)
ffffffc000001124:	6710                	ld	a2,8(a4)
ffffffc000001126:	96b2                	add	a3,a3,a2
ffffffc000001128:	fed53c23          	sd	a3,-8(a0)
ffffffc00000112c:	00083683          	ld	a3,0(a6)
ffffffc000001130:	4605                	li	a2,1
ffffffc000001132:	fac683e3          	beq	a3,a2,0xffffffc0000010d8
ffffffc000001136:	6b0c                	ld	a1,16(a4)
ffffffc000001138:	d5dd                	beqz	a1,0xffffffc0000010e6
ffffffc00000113a:	6f10                	ld	a2,24(a4)
ffffffc00000113c:	d279                	beqz	a2,0xffffffc000001102
ffffffc00000113e:	ed90                	sd	a2,24(a1)
ffffffc000001140:	6b18                	ld	a4,16(a4)
ffffffc000001142:	ea18                	sd	a4,16(a2)
ffffffc000001144:	00083703          	ld	a4,0(a6)
ffffffc000001148:	177d                	addi	a4,a4,-1
ffffffc00000114a:	00e83023          	sd	a4,0(a6)
ffffffc00000114e:	ee078ee3          	beqz	a5,0xffffffc00000104a
ffffffc000001152:	6798                	ld	a4,8(a5)
ffffffc000001154:	ff853683          	ld	a3,-8(a0)
ffffffc000001158:	9736                	add	a4,a4,a3
ffffffc00000115a:	e798                	sd	a4,8(a5)
ffffffc00000115c:	8082                	ret
ffffffc00000115e:	1141                	addi	sp,sp,-16
ffffffc000001160:	e406                	sd	ra,8(sp)
ffffffc000001162:	00000097          	auipc	ra,0x0
ffffffc000001166:	ede080e7          	jalr	-290(ra) # 0xffffffc000001040
ffffffc00000116a:	60a2                	ld	ra,8(sp)
ffffffc00000116c:	0141                	addi	sp,sp,16
ffffffc00000116e:	8082                	ret
ffffffc000001170:	7159                	addi	sp,sp,-112
ffffffc000001172:	f486                	sd	ra,104(sp)
ffffffc000001174:	f0a2                	sd	s0,96(sp)
ffffffc000001176:	eca6                	sd	s1,88(sp)
ffffffc000001178:	e8ca                	sd	s2,80(sp)
ffffffc00000117a:	e4ce                	sd	s3,72(sp)
ffffffc00000117c:	89aa                	mv	s3,a0
ffffffc00000117e:	892e                	mv	s2,a1
ffffffc000001180:	003ff417          	auipc	s0,0x3ff
ffffffc000001184:	eb040413          	addi	s0,s0,-336 # 0xffffffc000400030
ffffffc000001188:	00040223          	sb	zero,4(s0)
ffffffc00000118c:	00000097          	auipc	ra,0x0
ffffffc000001190:	818080e7          	jalr	-2024(ra) # 0xffffffc0000009a4
ffffffc000001194:	4785                	li	a5,1
ffffffc000001196:	00f40223          	sb	a5,4(s0)
ffffffc00000119a:	00000517          	auipc	a0,0x0
ffffffc00000119e:	31650513          	addi	a0,a0,790 # 0xffffffc0000014b0
ffffffc0000011a2:	fffff097          	auipc	ra,0xfffff
ffffffc0000011a6:	7d0080e7          	jalr	2000(ra) # 0xffffffc000000972
ffffffc0000011aa:	860a                	mv	a2,sp
ffffffc0000011ac:	85ce                	mv	a1,s3
ffffffc0000011ae:	8522                	mv	a0,s0
ffffffc0000011b0:	00000097          	auipc	ra,0x0
ffffffc0000011b4:	222080e7          	jalr	546(ra) # 0xffffffc0000013d2
ffffffc0000011b8:	04050793          	addi	a5,a0,64
ffffffc0000011bc:	00278533          	add	a0,a5,sp
ffffffc0000011c0:	fc050023          	sb	zero,-64(a0)
ffffffc0000011c4:	850a                	mv	a0,sp
ffffffc0000011c6:	fffff097          	auipc	ra,0xfffff
ffffffc0000011ca:	7ac080e7          	jalr	1964(ra) # 0xffffffc000000972
ffffffc0000011ce:	00000517          	auipc	a0,0x0
ffffffc0000011d2:	2fa50513          	addi	a0,a0,762 # 0xffffffc0000014c8
ffffffc0000011d6:	fffff097          	auipc	ra,0xfffff
ffffffc0000011da:	79c080e7          	jalr	1948(ra) # 0xffffffc000000972
ffffffc0000011de:	4681                	li	a3,0
ffffffc0000011e0:	860a                	mv	a2,sp
ffffffc0000011e2:	85ca                	mv	a1,s2
ffffffc0000011e4:	8522                	mv	a0,s0
ffffffc0000011e6:	00000097          	auipc	ra,0x0
ffffffc0000011ea:	13a080e7          	jalr	314(ra) # 0xffffffc000001320
ffffffc0000011ee:	04050793          	addi	a5,a0,64
ffffffc0000011f2:	00278533          	add	a0,a5,sp
ffffffc0000011f6:	fc050023          	sb	zero,-64(a0)
ffffffc0000011fa:	850a                	mv	a0,sp
ffffffc0000011fc:	fffff097          	auipc	ra,0xfffff
ffffffc000001200:	776080e7          	jalr	1910(ra) # 0xffffffc000000972
ffffffc000001204:	00000517          	auipc	a0,0x0
ffffffc000001208:	2ec50513          	addi	a0,a0,748 # 0xffffffc0000014f0
ffffffc00000120c:	fffff097          	auipc	ra,0xfffff
ffffffc000001210:	766080e7          	jalr	1894(ra) # 0xffffffc000000972
ffffffc000001214:	00444503          	lbu	a0,4(s0)
ffffffc000001218:	00000097          	auipc	ra,0x0
ffffffc00000121c:	818080e7          	jalr	-2024(ra) # 0xffffffc000000a30
ffffffc000001220:	00000517          	auipc	a0,0x0
ffffffc000001224:	24050513          	addi	a0,a0,576 # 0xffffffc000001460
ffffffc000001228:	fffff097          	auipc	ra,0xfffff
ffffffc00000122c:	74a080e7          	jalr	1866(ra) # 0xffffffc000000972
ffffffc000001230:	47a9                	li	a5,10
ffffffc000001232:	c01c                	sw	a5,0(s0)
ffffffc000001234:	70a6                	ld	ra,104(sp)
ffffffc000001236:	7406                	ld	s0,96(sp)
ffffffc000001238:	64e6                	ld	s1,88(sp)
ffffffc00000123a:	6946                	ld	s2,80(sp)
ffffffc00000123c:	69a6                	ld	s3,72(sp)
ffffffc00000123e:	6165                	addi	sp,sp,112
ffffffc000001240:	8082                	ret
ffffffc000001242:	832a                	mv	t1,a0
ffffffc000001244:	cda9                	beqz	a1,0xffffffc00000129e
ffffffc000001246:	411c                	lw	a5,0(a0)
ffffffc000001248:	e7b5                	bnez	a5,0xffffffc0000012b4
ffffffc00000124a:	47a9                	li	a5,10
ffffffc00000124c:	c11c                	sw	a5,0(a0)
ffffffc00000124e:	00032803          	lw	a6,0(t1)
ffffffc000001252:	87ae                	mv	a5,a1
ffffffc000001254:	8736                	mv	a4,a3
ffffffc000001256:	0016851b          	addiw	a0,a3,1
ffffffc00000125a:	86aa                	mv	a3,a0
ffffffc00000125c:	88be                	mv	a7,a5
ffffffc00000125e:	0307d7bb          	divuw	a5,a5,a6
ffffffc000001262:	ff08f9e3          	bgeu	a7,a6,0xffffffc000001254
ffffffc000001266:	00000817          	auipc	a6,0x0
ffffffc00000126a:	29280813          	addi	a6,a6,658 # 0xffffffc0000014f8
ffffffc00000126e:	02071693          	slli	a3,a4,0x20
ffffffc000001272:	9281                	srli	a3,a3,0x20
ffffffc000001274:	96b2                	add	a3,a3,a2
ffffffc000001276:	00032783          	lw	a5,0(t1)
ffffffc00000127a:	02f5f7bb          	remuw	a5,a1,a5
ffffffc00000127e:	1782                	slli	a5,a5,0x20
ffffffc000001280:	9381                	srli	a5,a5,0x20
ffffffc000001282:	97c2                	add	a5,a5,a6
ffffffc000001284:	0007c783          	lbu	a5,0(a5)
ffffffc000001288:	00f68023          	sb	a5,0(a3)
ffffffc00000128c:	00032783          	lw	a5,0(t1)
ffffffc000001290:	86ae                	mv	a3,a1
ffffffc000001292:	02f5d5bb          	divuw	a1,a1,a5
ffffffc000001296:	377d                	addiw	a4,a4,-1
ffffffc000001298:	fcf6fbe3          	bgeu	a3,a5,0xffffffc00000126e
ffffffc00000129c:	8082                	ret
ffffffc00000129e:	02069793          	slli	a5,a3,0x20
ffffffc0000012a2:	9381                	srli	a5,a5,0x20
ffffffc0000012a4:	97b2                	add	a5,a5,a2
ffffffc0000012a6:	03000713          	li	a4,48
ffffffc0000012aa:	00e78023          	sb	a4,0(a5)
ffffffc0000012ae:	0016851b          	addiw	a0,a3,1
ffffffc0000012b2:	8082                	ret
ffffffc0000012b4:	10000793          	li	a5,256
ffffffc0000012b8:	f8b7fbe3          	bgeu	a5,a1,0xffffffc00000124e
ffffffc0000012bc:	411c                	lw	a5,0(a0)
ffffffc0000012be:	37e1                	addiw	a5,a5,-8
ffffffc0000012c0:	9bdd                	andi	a5,a5,-9
ffffffc0000012c2:	f7d1                	bnez	a5,0xffffffc00000124e
ffffffc0000012c4:	0016879b          	addiw	a5,a3,1
ffffffc0000012c8:	02069713          	slli	a4,a3,0x20
ffffffc0000012cc:	9301                	srli	a4,a4,0x20
ffffffc0000012ce:	9732                	add	a4,a4,a2
ffffffc0000012d0:	03000513          	li	a0,48
ffffffc0000012d4:	00a70023          	sb	a0,0(a4)
ffffffc0000012d8:	00032503          	lw	a0,0(t1)
ffffffc0000012dc:	4741                	li	a4,16
ffffffc0000012de:	00e51b63          	bne	a0,a4,0xffffffc0000012f4
ffffffc0000012e2:	2689                	addiw	a3,a3,2
ffffffc0000012e4:	1782                	slli	a5,a5,0x20
ffffffc0000012e6:	9381                	srli	a5,a5,0x20
ffffffc0000012e8:	97b2                	add	a5,a5,a2
ffffffc0000012ea:	07800713          	li	a4,120
ffffffc0000012ee:	00e78023          	sb	a4,0(a5)
ffffffc0000012f2:	bfb1                	j	0xffffffc00000124e
ffffffc0000012f4:	86be                	mv	a3,a5
ffffffc0000012f6:	bfa1                	j	0xffffffc00000124e
ffffffc0000012f8:	1141                	addi	sp,sp,-16
ffffffc0000012fa:	e406                	sd	ra,8(sp)
ffffffc0000012fc:	4681                	li	a3,0
ffffffc0000012fe:	0005c963          	bltz	a1,0xffffffc000001310
ffffffc000001302:	00000097          	auipc	ra,0x0
ffffffc000001306:	f40080e7          	jalr	-192(ra) # 0xffffffc000001242
ffffffc00000130a:	60a2                	ld	ra,8(sp)
ffffffc00000130c:	0141                	addi	sp,sp,16
ffffffc00000130e:	8082                	ret
ffffffc000001310:	40b005bb          	negw	a1,a1
ffffffc000001314:	02d00793          	li	a5,45
ffffffc000001318:	00f60023          	sb	a5,0(a2)
ffffffc00000131c:	4685                	li	a3,1
ffffffc00000131e:	b7d5                	j	0xffffffc000001302
ffffffc000001320:	832a                	mv	t1,a0
ffffffc000001322:	c9b9                	beqz	a1,0xffffffc000001378
ffffffc000001324:	411c                	lw	a5,0(a0)
ffffffc000001326:	e7a5                	bnez	a5,0xffffffc00000138e
ffffffc000001328:	47a9                	li	a5,10
ffffffc00000132a:	c11c                	sw	a5,0(a0)
ffffffc00000132c:	00036703          	lwu	a4,0(t1)
ffffffc000001330:	87ae                	mv	a5,a1
ffffffc000001332:	88b6                	mv	a7,a3
ffffffc000001334:	0016851b          	addiw	a0,a3,1
ffffffc000001338:	86aa                	mv	a3,a0
ffffffc00000133a:	883e                	mv	a6,a5
ffffffc00000133c:	02e7d7b3          	divu	a5,a5,a4
ffffffc000001340:	fee879e3          	bgeu	a6,a4,0xffffffc000001332
ffffffc000001344:	1882                	slli	a7,a7,0x20
ffffffc000001346:	0208d893          	srli	a7,a7,0x20
ffffffc00000134a:	9646                	add	a2,a2,a7
ffffffc00000134c:	00000697          	auipc	a3,0x0
ffffffc000001350:	1ac68693          	addi	a3,a3,428 # 0xffffffc0000014f8
ffffffc000001354:	00036783          	lwu	a5,0(t1)
ffffffc000001358:	02f5f7b3          	remu	a5,a1,a5
ffffffc00000135c:	97b6                	add	a5,a5,a3
ffffffc00000135e:	0007c783          	lbu	a5,0(a5)
ffffffc000001362:	00f60023          	sb	a5,0(a2)
ffffffc000001366:	00036783          	lwu	a5,0(t1)
ffffffc00000136a:	872e                	mv	a4,a1
ffffffc00000136c:	02f5d5b3          	divu	a1,a1,a5
ffffffc000001370:	167d                	addi	a2,a2,-1
ffffffc000001372:	fef771e3          	bgeu	a4,a5,0xffffffc000001354
ffffffc000001376:	8082                	ret
ffffffc000001378:	02069793          	slli	a5,a3,0x20
ffffffc00000137c:	9381                	srli	a5,a5,0x20
ffffffc00000137e:	97b2                	add	a5,a5,a2
ffffffc000001380:	03000713          	li	a4,48
ffffffc000001384:	00e78023          	sb	a4,0(a5)
ffffffc000001388:	0016851b          	addiw	a0,a3,1
ffffffc00000138c:	8082                	ret
ffffffc00000138e:	10000793          	li	a5,256
ffffffc000001392:	f8b7fde3          	bgeu	a5,a1,0xffffffc00000132c
ffffffc000001396:	411c                	lw	a5,0(a0)
ffffffc000001398:	37e1                	addiw	a5,a5,-8
ffffffc00000139a:	9bdd                	andi	a5,a5,-9
ffffffc00000139c:	fbc1                	bnez	a5,0xffffffc00000132c
ffffffc00000139e:	0016879b          	addiw	a5,a3,1
ffffffc0000013a2:	02069713          	slli	a4,a3,0x20
ffffffc0000013a6:	9301                	srli	a4,a4,0x20
ffffffc0000013a8:	9732                	add	a4,a4,a2
ffffffc0000013aa:	03000513          	li	a0,48
ffffffc0000013ae:	00a70023          	sb	a0,0(a4)
ffffffc0000013b2:	00032503          	lw	a0,0(t1)
ffffffc0000013b6:	4741                	li	a4,16
ffffffc0000013b8:	00e51b63          	bne	a0,a4,0xffffffc0000013ce
ffffffc0000013bc:	2689                	addiw	a3,a3,2
ffffffc0000013be:	1782                	slli	a5,a5,0x20
ffffffc0000013c0:	9381                	srli	a5,a5,0x20
ffffffc0000013c2:	97b2                	add	a5,a5,a2
ffffffc0000013c4:	07800713          	li	a4,120
ffffffc0000013c8:	00e78023          	sb	a4,0(a5)
ffffffc0000013cc:	b785                	j	0xffffffc00000132c
ffffffc0000013ce:	86be                	mv	a3,a5
ffffffc0000013d0:	bfb1                	j	0xffffffc00000132c
ffffffc0000013d2:	03000793          	li	a5,48
ffffffc0000013d6:	00f60023          	sb	a5,0(a2)
ffffffc0000013da:	07800793          	li	a5,120
ffffffc0000013de:	00f600a3          	sb	a5,1(a2)
ffffffc0000013e2:	01160793          	addi	a5,a2,17
ffffffc0000013e6:	00160693          	addi	a3,a2,1
ffffffc0000013ea:	00000617          	auipc	a2,0x0
ffffffc0000013ee:	10e60613          	addi	a2,a2,270 # 0xffffffc0000014f8
ffffffc0000013f2:	00f5f713          	andi	a4,a1,15
ffffffc0000013f6:	9732                	add	a4,a4,a2
ffffffc0000013f8:	00074703          	lbu	a4,0(a4)
ffffffc0000013fc:	00e78023          	sb	a4,0(a5)
ffffffc000001400:	8191                	srli	a1,a1,0x4
ffffffc000001402:	17fd                	addi	a5,a5,-1
ffffffc000001404:	fef697e3          	bne	a3,a5,0xffffffc0000013f2
ffffffc000001408:	4549                	li	a0,18
ffffffc00000140a:	8082                	ret
ffffffc00000140c:	85aa                	mv	a1,a0
ffffffc00000140e:	00000073          	ecall
ffffffc000001412:	8082                	ret

Disassembly of section .fini:

ffffffc000001414 <.fini>:
ffffffc000001414:	003ff797          	auipc	a5,0x3ff
ffffffc000001418:	bec7a783          	lw	a5,-1044(a5) # 0xffffffc000400000
ffffffc00000141c:	c391                	beqz	a5,0xffffffc000001420
ffffffc00000141e:	8082                	ret
ffffffc000001420:	4785                	li	a5,1
ffffffc000001422:	003ff717          	auipc	a4,0x3ff
ffffffc000001426:	bcf72f23          	sw	a5,-1058(a4) # 0xffffffc000400000
ffffffc00000142a:	00002797          	auipc	a5,0x2
ffffffc00000142e:	bc67b783          	ld	a5,-1082(a5) # 0xffffffc000002ff0
ffffffc000001432:	d7f5                	beqz	a5,0xffffffc00000141e
ffffffc000001434:	1141                	addi	sp,sp,-16
ffffffc000001436:	e406                	sd	ra,8(sp)
ffffffc000001438:	e022                	sd	s0,0(sp)
ffffffc00000143a:	00002417          	auipc	s0,0x2
ffffffc00000143e:	bb640413          	addi	s0,s0,-1098 # 0xffffffc000002ff0
ffffffc000001442:	9782                	jalr	a5
ffffffc000001444:	0421                	addi	s0,s0,8
ffffffc000001446:	601c                	ld	a5,0(s0)
ffffffc000001448:	ffed                	bnez	a5,0xffffffc000001442
ffffffc00000144a:	60a2                	ld	ra,8(sp)
ffffffc00000144c:	6402                	ld	s0,0(sp)
ffffffc00000144e:	0141                	addi	sp,sp,16
ffffffc000001450:	8082                	ret

Disassembly of section .rodata:

ffffffc000001458 <.rodata>:
ffffffc000001458:	3a5d                	addiw	s4,s4,-9
ffffffc00000145a:	0020                	addi	s0,sp,8
ffffffc00000145c:	0000                	unimp
ffffffc00000145e:	0000                	unimp
ffffffc000001460:	000a                	c.slli	zero,0x2
ffffffc000001462:	0000                	unimp
ffffffc000001464:	0000                	unimp
ffffffc000001466:	0000                	unimp
ffffffc000001468:	3a5d                	addiw	s4,s4,-9
ffffffc00000146a:	4220                	lw	s0,64(a2)
ffffffc00000146c:	7361                	lui	t1,0xffff8
ffffffc00000146e:	6369                	lui	t1,0x1a
ffffffc000001470:	7420                	ld	s0,104(s0)
ffffffc000001472:	7365                	lui	t1,0xffff9
ffffffc000001474:	0074                	addi	a3,sp,12
ffffffc000001476:	0000                	unimp
ffffffc000001478:	3a5d                	addiw	s4,s4,-9
ffffffc00000147a:	5420                	lw	s0,104(s0)
ffffffc00000147c:	7268                	ld	a0,224(a2)
ffffffc00000147e:	6165                	addi	sp,sp,112
ffffffc000001480:	2064                	fld	fs1,192(s0)
ffffffc000001482:	0000005b          	.insn	4, 0x005b
ffffffc000001486:	0000                	unimp
ffffffc000001488:	205d                	.insn	2, 0x205d
ffffffc00000148a:	6966                	ld	s2,88(sp)
ffffffc00000148c:	696e                	ld	s2,216(sp)
ffffffc00000148e:	64656873          	csrrsi	a6,hviprio1,10
ffffffc000001492:	0000                	unimp
ffffffc000001494:	0000                	unimp
ffffffc000001496:	0000                	unimp
ffffffc000001498:	3a5d                	addiw	s4,s4,-9
ffffffc00000149a:	5420                	lw	s0,104(s0)
ffffffc00000149c:	7365                	lui	t1,0xffff9
ffffffc00000149e:	2074                	fld	fa3,192(s0)
ffffffc0000014a0:	6572                	ld	a0,280(sp)
ffffffc0000014a2:	746c7573          	csrrci	a0,0x746,24
ffffffc0000014a6:	203a                	fld	ft0,392(sp)
ffffffc0000014a8:	00004b4f          	fnmadd.s	fs6,ft0,ft0,ft0,rmm
ffffffc0000014ac:	0000                	unimp
ffffffc0000014ae:	0000                	unimp
ffffffc0000014b0:	6548                	ld	a0,136(a0)
ffffffc0000014b2:	7061                	c.lui	zero,0xffff8
ffffffc0000014b4:	3a3a                	fld	fs4,424(sp)
ffffffc0000014b6:	6c61                	lui	s8,0x18
ffffffc0000014b8:	6f6c                	ld	a1,216(a4)
ffffffc0000014ba:	68742863          	.insn	4, 0x68742863
ffffffc0000014be:	7369                	lui	t1,0xffffa
ffffffc0000014c0:	003d                	c.nop	15
ffffffc0000014c2:	0000                	unimp
ffffffc0000014c4:	0000                	unimp
ffffffc0000014c6:	0000                	unimp
ffffffc0000014c8:	3a29                	addiw	s4,s4,-22
ffffffc0000014ca:	6f20                	ld	s0,88(a4)
ffffffc0000014cc:	7475                	lui	s0,0xffffd
ffffffc0000014ce:	6f20                	ld	s0,88(a4)
ffffffc0000014d0:	2066                	fld	ft0,88(sp)
ffffffc0000014d2:	656d                	lui	a0,0x1b
ffffffc0000014d4:	6f6d                	lui	t5,0x1b
ffffffc0000014d6:	7972                	ld	s2,312(sp)
ffffffc0000014d8:	7720                	ld	s0,104(a4)
ffffffc0000014da:	6968                	ld	a0,208(a0)
ffffffc0000014dc:	656c                	ld	a1,200(a0)
ffffffc0000014de:	6120                	ld	s0,64(a0)
ffffffc0000014e0:	6c6c                	ld	a1,216(s0)
ffffffc0000014e2:	7461636f          	jal	t1,0xffffffc000017c28
ffffffc0000014e6:	6e69                	lui	t3,0x1a
ffffffc0000014e8:	00002067          	.insn	4, 0x2067
ffffffc0000014ec:	0000                	unimp
ffffffc0000014ee:	0000                	unimp
ffffffc0000014f0:	6220                	ld	s0,64(a2)
ffffffc0000014f2:	7479                	lui	s0,0xffffe
ffffffc0000014f4:	7365                	lui	t1,0xffff9
ffffffc0000014f6:	0021                	c.nop	8
ffffffc0000014f8:	3130                	fld	fa2,96(a0)
ffffffc0000014fa:	3332                	fld	ft6,296(sp)
ffffffc0000014fc:	3534                	fld	fa3,104(a0)
ffffffc0000014fe:	3736                	fld	fa4,360(sp)
ffffffc000001500:	3938                	fld	fa4,112(a0)
ffffffc000001502:	6261                	lui	tp,0x18
ffffffc000001504:	66656463          	bltu	a0,t1,0xffffffc000001b6c
	...

Disassembly of section .eh_frame:

ffffffc000001510 <.eh_frame>:
ffffffc000001510:	0010                	.insn	2, 0x0010
ffffffc000001512:	0000                	unimp
ffffffc000001514:	0000                	unimp
ffffffc000001516:	0000                	unimp
ffffffc000001518:	00527a03          	.insn	4, 0x00527a03
ffffffc00000151c:	7c01                	lui	s8,0xfffe0
ffffffc00000151e:	0101                	addi	sp,sp,0
ffffffc000001520:	00020c1b          	sext.w	s8,tp
ffffffc000001524:	0020                	addi	s0,sp,8
ffffffc000001526:	0000                	unimp
ffffffc000001528:	0018                	.insn	2, 0x0018
ffffffc00000152a:	0000                	unimp
ffffffc00000152c:	fee8                	sd	a0,248(a3)
ffffffc00000152e:	ffff                	.insn	2, 0xffff
ffffffc000001530:	003e                	c.slli	zero,0xf
ffffffc000001532:	0000                	unimp
ffffffc000001534:	6200                	ld	s0,0(a2)
ffffffc000001536:	100e                	c.slli	zero,0x23
ffffffc000001538:	8144                	.insn	2, 0x8144
ffffffc00000153a:	8802                	jr	a6
ffffffc00000153c:	5204                	lw	s1,32(a2)
ffffffc00000153e:	42c1                	li	t0,16
ffffffc000001540:	42c8                	lw	a0,4(a3)
ffffffc000001542:	000e                	c.slli	zero,0x3
ffffffc000001544:	0000                	unimp
ffffffc000001546:	0000                	unimp
ffffffc000001548:	0020                	addi	s0,sp,8
ffffffc00000154a:	0000                	unimp
ffffffc00000154c:	003c                	addi	a5,sp,8
ffffffc00000154e:	0000                	unimp
ffffffc000001550:	eab0                	sd	a2,80(a3)
ffffffc000001552:	ffff                	.insn	2, 0xffff
ffffffc000001554:	0036                	c.slli	zero,0xd
ffffffc000001556:	0000                	unimp
ffffffc000001558:	5000                	lw	s0,32(s0)
ffffffc00000155a:	200e                	fld	ft0,192(sp)
ffffffc00000155c:	8146                	mv	sp,a7
ffffffc00000155e:	8802                	jr	a6
ffffffc000001560:	8904                	.insn	2, 0x8904
ffffffc000001562:	5606                	lw	a2,96(sp)
ffffffc000001564:	42c1                	li	t0,16
ffffffc000001566:	42c8                	lw	a0,4(a3)
ffffffc000001568:	42c9                	li	t0,18
ffffffc00000156a:	000e                	c.slli	zero,0x3

Disassembly of section .init_array:

ffffffc000002fb8 <.init_array>:
ffffffc000002fb8:	ffff                	.insn	2, 0xffff
ffffffc000002fba:	ffff                	.insn	2, 0xffff
ffffffc000002fbc:	ffff                	.insn	2, 0xffff
ffffffc000002fbe:	ffff                	.insn	2, 0xffff
ffffffc000002fc0:	0896                	slli	a7,a7,0x5
ffffffc000002fc2:	0000                	unimp
ffffffc000002fc4:	ffc0                	sd	s0,184(a5)
ffffffc000002fc6:	ffff                	.insn	2, 0xffff
ffffffc000002fc8:	0940                	addi	s0,sp,148
ffffffc000002fca:	0000                	unimp
ffffffc000002fcc:	ffc0                	sd	s0,184(a5)
ffffffc000002fce:	ffff                	.insn	2, 0xffff
ffffffc000002fd0:	0a42                	slli	s4,s4,0x10
ffffffc000002fd2:	0000                	unimp
ffffffc000002fd4:	ffc0                	sd	s0,184(a5)
ffffffc000002fd6:	ffff                	.insn	2, 0xffff
ffffffc000002fd8:	0a80                	addi	s0,sp,336
ffffffc000002fda:	0000                	unimp
ffffffc000002fdc:	ffc0                	sd	s0,184(a5)
ffffffc000002fde:	ffff                	.insn	2, 0xffff
	...

Disassembly of section .fini_array:

ffffffc000002fe8 <.fini_array>:
ffffffc000002fe8:	ffff                	.insn	2, 0xffff
ffffffc000002fea:	ffff                	.insn	2, 0xffff
ffffffc000002fec:	ffff                	.insn	2, 0xffff
ffffffc000002fee:	ffff                	.insn	2, 0xffff
ffffffc000002ff0:	08fc                	addi	a5,sp,92
ffffffc000002ff2:	0000                	unimp
ffffffc000002ff4:	ffc0                	sd	s0,184(a5)
ffffffc000002ff6:	ffff                	.insn	2, 0xffff
	...

Disassembly of section .riscv.attributes:

0000000000000000 <.riscv.attributes>:
   0:	7341                	lui	t1,0xffff0
   2:	0000                	unimp
   4:	7200                	ld	s0,32(a2)
   6:	7369                	lui	t1,0xffffa
   8:	01007663          	bgeu	zero,a6,0x14
   c:	0069                	c.nop	26
   e:	0000                	unimp
  10:	1004                	addi	s1,sp,32
  12:	7205                	lui	tp,0xfffe1
  14:	3676                	fld	fa2,376(sp)
  16:	6934                	ld	a3,80(a0)
  18:	7032                	.insn	2, 0x7032
  1a:	5f31                	li	t5,-20
  1c:	326d                	addiw	tp,tp,-5 # 0xfffffffffffe0ffb
  1e:	3070                	fld	fa2,224(s0)
  20:	615f 7032 5f31      	.insn	6, 0x5f317032615f
  26:	3266                	fld	ft4,120(sp)
  28:	3270                	fld	fa2,224(a2)
  2a:	645f 7032 5f32      	.insn	6, 0x5f327032645f
  30:	30703263          	.insn	4, 0x30703263
  34:	7a5f 6369 7273      	.insn	6, 0x727363697a5f
  3a:	7032                	.insn	2, 0x7032
  3c:	5f30                	lw	a2,120(a4)
  3e:	697a                	ld	s2,408(sp)
  40:	6566                	ld	a0,88(sp)
  42:	636e                	ld	t1,216(sp)
  44:	6965                	lui	s2,0x19
  46:	7032                	.insn	2, 0x7032
  48:	5f30                	lw	a2,120(a4)
  4a:	6d7a                	ld	s10,408(sp)
  4c:	756d                	lui	a0,0xffffb
  4e:	316c                	fld	fa1,224(a0)
  50:	3070                	fld	fa2,224(s0)
  52:	7a5f 6161 6f6d      	.insn	6, 0x6f6d61617a5f
  58:	7031                	c.lui	zero,0xfffec
  5a:	5f30                	lw	a2,120(a4)
  5c:	617a                	ld	sp,408(sp)
  5e:	726c                	ld	a1,224(a2)
  60:	70316373          	csrrsi	t1,0x703,2
  64:	5f30                	lw	a2,120(a4)
  66:	637a                	ld	t1,408(sp)
  68:	3161                	addiw	sp,sp,-8
  6a:	3070                	fld	fa2,224(s0)
  6c:	7a5f 6463 7031      	.insn	6, 0x703164637a5f
  72:	0030                	addi	a2,sp,8
